
/bin/uname:     file format elf64-x86-64
/bin/uname
architecture: i386:x86-64, flags 0x00000150:
HAS_SYMS, DYNAMIC, D_PAGED
start address 0x0000000000002820

Program Header:
    PHDR off    0x0000000000000040 vaddr 0x0000000000000040 paddr 0x0000000000000040 align 2**3
         filesz 0x0000000000000268 memsz 0x0000000000000268 flags r--
  INTERP off    0x00000000000002a8 vaddr 0x00000000000002a8 paddr 0x00000000000002a8 align 2**0
         filesz 0x000000000000001c memsz 0x000000000000001c flags r--
    LOAD off    0x0000000000000000 vaddr 0x0000000000000000 paddr 0x0000000000000000 align 2**12
         filesz 0x0000000000001628 memsz 0x0000000000001628 flags r--
    LOAD off    0x0000000000002000 vaddr 0x0000000000002000 paddr 0x0000000000002000 align 2**12
         filesz 0x00000000000037b9 memsz 0x00000000000037b9 flags r-x
    LOAD off    0x0000000000006000 vaddr 0x0000000000006000 paddr 0x0000000000006000 align 2**12
         filesz 0x0000000000001e60 memsz 0x0000000000001e60 flags r--
    LOAD off    0x00000000000089d0 vaddr 0x00000000000099d0 paddr 0x00000000000099d0 align 2**12
         filesz 0x00000000000006d0 memsz 0x0000000000000868 flags rw-
 DYNAMIC off    0x0000000000008c58 vaddr 0x0000000000009c58 paddr 0x0000000000009c58 align 2**3
         filesz 0x00000000000001f0 memsz 0x00000000000001f0 flags rw-
    NOTE off    0x00000000000002c4 vaddr 0x00000000000002c4 paddr 0x00000000000002c4 align 2**2
         filesz 0x0000000000000044 memsz 0x0000000000000044 flags r--
EH_FRAME off    0x0000000000007070 vaddr 0x0000000000007070 paddr 0x0000000000007070 align 2**2
         filesz 0x0000000000000274 memsz 0x0000000000000274 flags r--
   STACK off    0x0000000000000000 vaddr 0x0000000000000000 paddr 0x0000000000000000 align 2**4
         filesz 0x0000000000000000 memsz 0x0000000000000000 flags rw-
   RELRO off    0x00000000000089d0 vaddr 0x00000000000099d0 paddr 0x00000000000099d0 align 2**0
         filesz 0x0000000000000630 memsz 0x0000000000000630 flags r--

Dynamic Section:
  NEEDED               libc.so.6
  INIT                 0x0000000000002000
  FINI                 0x00000000000057b0
  INIT_ARRAY           0x00000000000099d0
  INIT_ARRAYSZ         0x0000000000000008
  FINI_ARRAY           0x00000000000099d8
  FINI_ARRAYSZ         0x0000000000000008
  GNU_HASH             0x0000000000000308
  STRTAB               0x00000000000009f8
  SYMTAB               0x00000000000003b0
  STRSZ                0x000000000000033a
  SYMENT               0x0000000000000018
  DEBUG                0x0000000000000000
  PLTGOT               0x0000000000009e48
  PLTRELSZ             0x0000000000000438
  PLTREL               0x0000000000000007
  JMPREL               0x00000000000011f0
  RELA                 0x0000000000000e18
  RELASZ               0x00000000000003d8
  RELAENT              0x0000000000000018
  FLAGS                0x0000000000000008
  FLAGS_1              0x0000000008000001
  VERNEED              0x0000000000000db8
  VERNEEDNUM           0x0000000000000001
  VERSYM               0x0000000000000d32
  RELACOUNT            0x000000000000001f

Version References:
  required from libc.so.6:
    0x0d696913 0x00 06 GLIBC_2.3
    0x09691974 0x00 05 GLIBC_2.3.4
    0x06969194 0x00 04 GLIBC_2.14
    0x0d696914 0x00 03 GLIBC_2.4
    0x09691a75 0x00 02 GLIBC_2.2.5

Sections:
Idx Name          Size      VMA               LMA               File off  Algn
  0 .interp       0000001c  00000000000002a8  00000000000002a8  000002a8  2**0
                  CONTENTS, ALLOC, LOAD, READONLY, DATA
  1 .note.ABI-tag 00000020  00000000000002c4  00000000000002c4  000002c4  2**2
                  CONTENTS, ALLOC, LOAD, READONLY, DATA
  2 .note.gnu.build-id 00000024  00000000000002e4  00000000000002e4  000002e4  2**2
                  CONTENTS, ALLOC, LOAD, READONLY, DATA
  3 .gnu.hash     000000a8  0000000000000308  0000000000000308  00000308  2**3
                  CONTENTS, ALLOC, LOAD, READONLY, DATA
  4 .dynsym       00000648  00000000000003b0  00000000000003b0  000003b0  2**3
                  CONTENTS, ALLOC, LOAD, READONLY, DATA
  5 .dynstr       0000033a  00000000000009f8  00000000000009f8  000009f8  2**0
                  CONTENTS, ALLOC, LOAD, READONLY, DATA
  6 .gnu.version  00000086  0000000000000d32  0000000000000d32  00000d32  2**1
                  CONTENTS, ALLOC, LOAD, READONLY, DATA
  7 .gnu.version_r 00000060  0000000000000db8  0000000000000db8  00000db8  2**3
                  CONTENTS, ALLOC, LOAD, READONLY, DATA
  8 .rela.dyn     000003d8  0000000000000e18  0000000000000e18  00000e18  2**3
                  CONTENTS, ALLOC, LOAD, READONLY, DATA
  9 .rela.plt     00000438  00000000000011f0  00000000000011f0  000011f0  2**3
                  CONTENTS, ALLOC, LOAD, READONLY, DATA
 10 .init         00000017  0000000000002000  0000000000002000  00002000  2**2
                  CONTENTS, ALLOC, LOAD, READONLY, CODE
 11 .plt          000002e0  0000000000002020  0000000000002020  00002020  2**4
                  CONTENTS, ALLOC, LOAD, READONLY, CODE
 12 .plt.got      00000008  0000000000002300  0000000000002300  00002300  2**3
                  CONTENTS, ALLOC, LOAD, READONLY, CODE
 13 .text         0000349e  0000000000002310  0000000000002310  00002310  2**4
                  CONTENTS, ALLOC, LOAD, READONLY, CODE
 14 .fini         00000009  00000000000057b0  00000000000057b0  000057b0  2**2
                  CONTENTS, ALLOC, LOAD, READONLY, CODE
 15 .rodata       0000106e  0000000000006000  0000000000006000  00006000  2**5
                  CONTENTS, ALLOC, LOAD, READONLY, DATA
 16 .eh_frame_hdr 00000274  0000000000007070  0000000000007070  00007070  2**2
                  CONTENTS, ALLOC, LOAD, READONLY, DATA
 17 .eh_frame     00000b78  00000000000072e8  00000000000072e8  000072e8  2**3
                  CONTENTS, ALLOC, LOAD, READONLY, DATA
 18 .init_array   00000008  00000000000099d0  00000000000099d0  000089d0  2**3
                  CONTENTS, ALLOC, LOAD, DATA
 19 .fini_array   00000008  00000000000099d8  00000000000099d8  000089d8  2**3
                  CONTENTS, ALLOC, LOAD, DATA
 20 .data.rel.ro  00000278  00000000000099e0  00000000000099e0  000089e0  2**5
                  CONTENTS, ALLOC, LOAD, DATA
 21 .dynamic      000001f0  0000000000009c58  0000000000009c58  00008c58  2**3
                  CONTENTS, ALLOC, LOAD, DATA
 22 .got          000001a8  0000000000009e48  0000000000009e48  00008e48  2**3
                  CONTENTS, ALLOC, LOAD, DATA
 23 .data         000000a0  000000000000a000  000000000000a000  00009000  2**5
                  CONTENTS, ALLOC, LOAD, DATA
 24 .bss          00000198  000000000000a0a0  000000000000a0a0  000090a0  2**5
                  ALLOC
 25 .gnu_debuglink 00000034  0000000000000000  0000000000000000  000090a0  2**2
                  CONTENTS, READONLY
SYMBOL TABLE:
no symbols


Contents of section .interp:
 02a8 2f6c6962 36342f6c 642d6c69 6e75782d  /lib64/ld-linux-
 02b8 7838362d 36342e73 6f2e3200           x86-64.so.2.    
Contents of section .note.ABI-tag:
 02c4 04000000 10000000 01000000 474e5500  ............GNU.
 02d4 00000000 03000000 02000000 00000000  ................
Contents of section .note.gnu.build-id:
 02e4 04000000 14000000 03000000 474e5500  ............GNU.
 02f4 b0d52ed7 c4360ae0 9026a32b 3d8c9ec1  .....6...&.+=...
 0304 9201a004                             ....            
Contents of section .gnu.hash:
 0308 11000000 32000000 02000000 07000000  ....2...........
 0318 1201d224 12290856 6049018e 60000000  ...$.).V`I..`...
 0328 32000000 00000000 33000000 34000000  2.......3...4...
 0338 36000000 3b000000 3c000000 3d000000  6...;...<...=...
 0348 3e000000 00000000 00000000 00000000  >...............
 0358 3f000000 00000000 00000000 00000000  ?...............
 0368 41000000 bd50769e 33c4f712 96a08997  A....Pv.3.......
 0378 3f044b86 2ad4b8d3 ac4be3c0 c84d4223  ?.K.*....K...MB#
 0388 462de4de cf2c6372 058b26a4 5f13065a  F-...,cr..&._..Z
 0398 39f28b1c e56241f5 108a4d23 d165ce6d  9....bA...M#.e.m
 03a8 281d8c1c 1ded632a                    (.....c*        
Contents of section .dynsym:
 03b0 00000000 00000000 00000000 00000000  ................
 03c0 00000000 00000000 03020000 12000000  ................
 03d0 00000000 00000000 00000000 00000000  ................
 03e0 8f000000 12000000 00000000 00000000  ................
 03f0 00000000 00000000 e6000000 12000000  ................
 0400 00000000 00000000 00000000 00000000  ................
 0410 37000000 12000000 00000000 00000000  7...............
 0420 00000000 00000000 f5020000 20000000  ............ ...
 0430 00000000 00000000 00000000 00000000  ................
 0440 95000000 12000000 00000000 00000000  ................
 0450 00000000 00000000 7c010000 12000000  ........|.......
 0460 00000000 00000000 00000000 00000000  ................
 0470 be010000 12000000 00000000 00000000  ................
 0480 00000000 00000000 20010000 12000000  ........ .......
 0490 00000000 00000000 00000000 00000000  ................
 04a0 ba010000 12000000 00000000 00000000  ................
 04b0 00000000 00000000 4e000000 12000000  ........N.......
 04c0 00000000 00000000 00000000 00000000  ................
 04d0 b3000000 12000000 00000000 00000000  ................
 04e0 00000000 00000000 d1000000 12000000  ................
 04f0 00000000 00000000 00000000 00000000  ................
 0500 5e000000 12000000 00000000 00000000  ^...............
 0510 00000000 00000000 62010000 12000000  ........b.......
 0520 00000000 00000000 00000000 00000000  ................
 0530 29000000 12000000 00000000 00000000  )...............
 0540 00000000 00000000 e9010000 12000000  ................
 0550 00000000 00000000 00000000 00000000  ................
 0560 46000000 12000000 00000000 00000000  F...............
 0570 00000000 00000000 b4010000 12000000  ................
 0580 00000000 00000000 00000000 00000000  ................
 0590 13010000 12000000 00000000 00000000  ................
 05a0 00000000 00000000 d8000000 12000000  ................
 05b0 00000000 00000000 00000000 00000000  ................
 05c0 d0010000 12000000 00000000 00000000  ................
 05d0 00000000 00000000 f7000000 12000000  ................
 05e0 00000000 00000000 00000000 00000000  ................
 05f0 f4010000 12000000 00000000 00000000  ................
 0600 00000000 00000000 ca000000 12000000  ................
 0610 00000000 00000000 00000000 00000000  ................
 0620 c9010000 12000000 00000000 00000000  ................
 0630 00000000 00000000 11030000 20000000  ............ ...
 0640 00000000 00000000 00000000 00000000  ................
 0650 19010000 12000000 00000000 00000000  ................
 0660 00000000 00000000 6e010000 12000000  ........n.......
 0670 00000000 00000000 00000000 00000000  ................
 0680 6f000000 12000000 00000000 00000000  o...............
 0690 00000000 00000000 27010000 12000000  ........'.......
 06a0 00000000 00000000 00000000 00000000  ................
 06b0 0b000000 12000000 00000000 00000000  ................
 06c0 00000000 00000000 36010000 12000000  ........6.......
 06d0 00000000 00000000 00000000 00000000  ................
 06e0 50010000 12000000 00000000 00000000  P...............
 06f0 00000000 00000000 87000000 12000000  ................
 0700 00000000 00000000 00000000 00000000  ................
 0710 1f000000 12000000 00000000 00000000  ................
 0720 00000000 00000000 12000000 12000000  ................
 0730 00000000 00000000 00000000 00000000  ................
 0740 58000000 12000000 00000000 00000000  X...............
 0750 00000000 00000000 e2010000 12000000  ................
 0760 00000000 00000000 00000000 00000000  ................
 0770 31000000 12000000 00000000 00000000  1...............
 0780 00000000 00000000 23020000 12000000  ........#.......
 0790 00000000 00000000 00000000 00000000  ................
 07a0 96000000 12000000 00000000 00000000  ................
 07b0 00000000 00000000 75010000 12000000  ........u.......
 07c0 00000000 00000000 00000000 00000000  ................
 07d0 fe000000 12000000 00000000 00000000  ................
 07e0 00000000 00000000 20030000 20000000  ........ ... ...
 07f0 00000000 00000000 00000000 00000000  ................
 0800 2e010000 12000000 00000000 00000000  ................
 0810 00000000 00000000 7e000000 12000000  ........~.......
 0820 00000000 00000000 00000000 00000000  ................
 0830 df000000 12000000 00000000 00000000  ................
 0840 00000000 00000000 42010000 12000000  ........B.......
 0850 00000000 00000000 00000000 00000000  ................
 0860 08020000 11001900 a0a00000 00000000  ................
 0870 08000000 00000000 3f000000 11001900  ........?.......
 0880 b0a00000 00000000 04000000 00000000  ................
 0890 9b000000 21001900 b8a00000 00000000  ....!...........
 08a0 08000000 00000000 a8020000 11001000  ................
 08b0 20700000 00000000 2f000000 00000000   p....../.......
 08c0 51020000 11001800 18a00000 00000000  Q...............
 08d0 08000000 00000000 59020000 11001000  ........Y.......
 08e0 00600000 00000000 04000000 00000000  .`..............
 08f0 7b020000 11001500 009c0000 00000000  {...............
 0900 58000000 00000000 8e020000 11001800  X...............
 0910 20a00000 00000000 04000000 00000000   ...............
 0920 13020000 11001900 b8a00000 00000000  ................
 0930 08000000 00000000 30020000 11001800  ........0.......
 0940 40a00000 00000000 38000000 00000000  @.......8.......
 0950 46020000 11001800 10a00000 00000000  F...............
 0960 04000000 00000000 5b010000 11001900  ........[.......
 0970 c0a00000 00000000 08000000 00000000  ................
 0980 87010000 21001900 a0a00000 00000000  ....!...........
 0990 08000000 00000000 68020000 11001000  ........h.......
 09a0 c06c0000 00000000 28000000 00000000  .l......(.......
 09b0 a5010000 22000000 00000000 00000000  ...."...........
 09c0 00000000 00000000 0c010000 11001900  ................
 09d0 a8a00000 00000000 08000000 00000000  ................
 09e0 9b020000 11001900 e0a00000 00000000  ................
 09f0 08000000 00000000                    ........        
Contents of section .dynstr:
 09f8 006c6962 632e736f 2e360066 666c7573  .libc.so.6.fflus
 0a08 68005f5f 7072696e 74665f63 686b0073  h.__printf_chk.s
 0a18 65746c6f 63616c65 006d6272 746f7763  etlocale.mbrtowc
 0a28 00666f70 656e0073 74726e63 6d70006f  .fopen.strncmp.o
 0a38 7074696e 64007374 72726368 72006463  ptind.strrchr.dc
 0a48 67657474 65787400 6572726f 72005f5f  gettext.error.__
 0a58 73746163 6b5f6368 6b5f6661 696c0066  stack_chk_fail.f
 0a68 67657473 5f756e6c 6f636b65 64006973  gets_unlocked.is
 0a78 77707269 6e740072 65616c6c 6f630061  wprint.realloc.a
 0a88 626f7274 005f6578 69740070 726f6772  bort._exit.progr
 0a98 616d5f69 6e766f63 6174696f 6e5f6e61  am_invocation_na
 0aa8 6d65005f 5f637479 70655f67 65745f6d  me.__ctype_get_m
 0ab8 625f6375 725f6d61 78006361 6c6c6f63  b_cur_max.calloc
 0ac8 00737472 6c656e00 6d656d73 65740073  .strlen.memset.s
 0ad8 74727374 72005f5f 6572726e 6f5f6c6f  trstr.__errno_lo
 0ae8 63617469 6f6e006d 656d636d 70005f5f  cation.memcmp.__
 0af8 66707269 6e74665f 63686b00 7374646f  fprintf_chk.stdo
 0b08 7574006c 7365656b 006d656d 63707900  ut.lseek.memcpy.
 0b18 66636c6f 7365006d 616c6c6f 63006d62  fclose.malloc.mb
 0b28 73696e69 74006e6c 5f6c616e 67696e66  sinit.nl_langinf
 0b38 6f005f5f 63747970 655f625f 6c6f6300  o.__ctype_b_loc.
 0b48 5f5f6672 65616469 6e670073 74646572  __freading.stder
 0b58 72006765 746f7074 5f6c6f6e 67006669  r.getopt_long.fi
 0b68 6c656e6f 00667772 69746500 5f5f6670  leno.fwrite.__fp
 0b78 656e6469 6e670070 726f6772 616d5f69  ending.program_i
 0b88 6e766f63 6174696f 6e5f7368 6f72745f  nvocation_short_
 0b98 6e616d65 005f5f63 78615f66 696e616c  name.__cxa_final
 0ba8 697a6500 756e616d 65006269 6e647465  ize.uname.bindte
 0bb8 7874646f 6d61696e 00737472 636d7000  xtdomain.strcmp.
 0bc8 5f5f6c69 62635f73 74617274 5f6d6169  __libc_start_mai
 0bd8 6e006673 65656b6f 005f5f6f 76657266  n.fseeko.__overf
 0be8 6c6f7700 66707574 735f756e 6c6f636b  low.fputs_unlock
 0bf8 65640066 72656500 5f5f7072 6f676e61  ed.free.__progna
 0c08 6d65005f 5f70726f 676e616d 655f6675  me.__progname_fu
 0c18 6c6c005f 5f637861 5f617465 78697400  ll.__cxa_atexit.
 0c28 71756f74 655f7175 6f74696e 675f6f70  quote_quoting_op
 0c38 74696f6e 7300756e 616d655f 6d6f6465  tions.uname_mode
 0c48 00566572 73696f6e 005f494f 5f737464  .Version._IO_std
 0c58 696e5f75 73656400 71756f74 696e675f  in_used.quoting_
 0c68 7374796c 655f7661 6c730071 756f7469  style_vals.quoti
 0c78 6e675f73 74796c65 5f617267 73006578  ng_style_args.ex
 0c88 69745f66 61696c75 72650070 726f6772  it_failure.progr
 0c98 616d5f6e 616d6500 76657273 696f6e5f  am_name.version_
 0ca8 6574635f 636f7079 72696768 7400474c  etc_copyright.GL
 0cb8 4942435f 322e3300 474c4942 435f322e  IBC_2.3.GLIBC_2.
 0cc8 332e3400 474c4942 435f322e 31340047  3.4.GLIBC_2.14.G
 0cd8 4c494243 5f322e34 00474c49 42435f32  LIBC_2.4.GLIBC_2
 0ce8 2e322e35 005f4954 4d5f6465 72656769  .2.5._ITM_deregi
 0cf8 73746572 544d436c 6f6e6554 61626c65  sterTMCloneTable
 0d08 005f5f67 6d6f6e5f 73746172 745f5f00  .__gmon_start__.
 0d18 5f49544d 5f726567 69737465 72544d43  _ITM_registerTMC
 0d28 6c6f6e65 5461626c 6500               loneTable.      
Contents of section .gnu.version:
 0d32 00000200 02000200 02000000 02000200  ................
 0d42 02000200 02000200 02000200 03000200  ................
 0d52 02000200 02000200 02000200 02000200  ................
 0d62 02000200 02000000 04000200 02000200  ................
 0d72 02000200 02000200 02000500 02000200  ................
 0d82 02000200 02000200 05000000 02000200  ................
 0d92 02000600 02000200 02000100 01000100  ................
 0da2 01000100 02000100 01000200 02000100  ................
 0db2 02000200 0100                        ......          
Contents of section .gnu.version_r:
 0db8 01000500 01000000 10000000 00000000  ................
 0dc8 1369690d 00000600 be020000 10000000  .ii.............
 0dd8 74196909 00000500 c8020000 10000000  t.i.............
 0de8 94919606 00000400 d4020000 10000000  ................
 0df8 1469690d 00000300 df020000 10000000  .ii.............
 0e08 751a6909 00000200 e9020000 00000000  u.i.............
Contents of section .rela.dyn:
 0e18 d0990000 00000000 08000000 00000000  ................
 0e28 00290000 00000000 d8990000 00000000  .)..............
 0e38 08000000 00000000 c0280000 00000000  .........(......
 0e48 e0990000 00000000 08000000 00000000  ................
 0e58 65610000 00000000 009a0000 00000000  ea..............
 0e68 08000000 00000000 a1610000 00000000  .........a......
 0e78 409a0000 00000000 08000000 00000000  @...............
 0e88 6a610000 00000000 609a0000 00000000  ja......`.......
 0e98 08000000 00000000 6e610000 00000000  ........na......
 0ea8 809a0000 00000000 08000000 00000000  ................
 0eb8 7a610000 00000000 a09a0000 00000000  za..............
 0ec8 08000000 00000000 82610000 00000000  .........a......
 0ed8 c09a0000 00000000 08000000 00000000  ................
 0ee8 8b610000 00000000 e09a0000 00000000  .a..............
 0ef8 08000000 00000000 92610000 00000000  .........a......
 0f08 009b0000 00000000 08000000 00000000  ................
 0f18 9a610000 00000000 209b0000 00000000  .a...... .......
 0f28 08000000 00000000 a9610000 00000000  .........a......
 0f38 409b0000 00000000 08000000 00000000  @...............
 0f48 b1610000 00000000 609b0000 00000000  .a......`.......
 0f58 08000000 00000000 bb610000 00000000  .........a......
 0f68 809b0000 00000000 08000000 00000000  ................
 0f78 cd610000 00000000 a09b0000 00000000  .a..............
 0f88 08000000 00000000 65610000 00000000  ........ea......
 0f98 c09b0000 00000000 08000000 00000000  ................
 0fa8 a1610000 00000000 009c0000 00000000  .a..............
 0fb8 08000000 00000000 49660000 00000000  ........If......
 0fc8 089c0000 00000000 08000000 00000000  ................
 0fd8 51660000 00000000 109c0000 00000000  Qf..............
 0fe8 08000000 00000000 57660000 00000000  ........Wf......
 0ff8 189c0000 00000000 08000000 00000000  ................
 1008 64660000 00000000 209c0000 00000000  df...... .......
 1018 08000000 00000000 71660000 00000000  ........qf......
 1028 289c0000 00000000 08000000 00000000  (...............
 1038 85660000 00000000 309c0000 00000000  .f......0.......
 1048 08000000 00000000 87660000 00000000  .........f......
 1058 389c0000 00000000 08000000 00000000  8...............
 1068 6a660000 00000000 409c0000 00000000  jf......@.......
 1078 08000000 00000000 de600000 00000000  .........`......
 1088 489c0000 00000000 08000000 00000000  H...............
 1098 8f660000 00000000 08a00000 00000000  .f..............
 10a8 08000000 00000000 08a00000 00000000  ................
 10b8 18a00000 00000000 08000000 00000000  ................
 10c8 d3650000 00000000 80a00000 00000000  .e..............
 10d8 08000000 00000000 90a00000 00000000  ................
 10e8 98a00000 00000000 08000000 00000000  ................
 10f8 00a10000 00000000 c89f0000 00000000  ................
 1108 06000000 05000000 00000000 00000000  ................
 1118 d09f0000 00000000 06000000 16000000  ................
 1128 00000000 00000000 d89f0000 00000000  ................
 1138 06000000 1b000000 00000000 00000000  ................
 1148 e09f0000 00000000 06000000 2d000000  ............-...
 1158 00000000 00000000 e89f0000 00000000  ................
 1168 06000000 40000000 00000000 00000000  ....@...........
 1178 a0a00000 00000000 05000000 32000000  ............2...
 1188 00000000 00000000 a8a00000 00000000  ................
 1198 05000000 41000000 00000000 00000000  ....A...........
 11a8 b0a00000 00000000 05000000 33000000  ............3...
 11b8 00000000 00000000 b8a00000 00000000  ................
 11c8 05000000 3a000000 00000000 00000000  ....:...........
 11d8 c0a00000 00000000 05000000 3d000000  ............=...
 11e8 00000000 00000000                    ........        
Contents of section .rela.plt:
 11f0 609e0000 00000000 07000000 01000000  `...............
 1200 00000000 00000000 689e0000 00000000  ........h.......
 1210 07000000 02000000 00000000 00000000  ................
 1220 709e0000 00000000 07000000 03000000  p...............
 1230 00000000 00000000 789e0000 00000000  ........x.......
 1240 07000000 04000000 00000000 00000000  ................
 1250 809e0000 00000000 07000000 06000000  ................
 1260 00000000 00000000 889e0000 00000000  ................
 1270 07000000 07000000 00000000 00000000  ................
 1280 909e0000 00000000 07000000 08000000  ................
 1290 00000000 00000000 989e0000 00000000  ................
 12a0 07000000 09000000 00000000 00000000  ................
 12b0 a09e0000 00000000 07000000 0a000000  ................
 12c0 00000000 00000000 a89e0000 00000000  ................
 12d0 07000000 0b000000 00000000 00000000  ................
 12e0 b09e0000 00000000 07000000 0c000000  ................
 12f0 00000000 00000000 b89e0000 00000000  ................
 1300 07000000 0d000000 00000000 00000000  ................
 1310 c09e0000 00000000 07000000 0e000000  ................
 1320 00000000 00000000 c89e0000 00000000  ................
 1330 07000000 0f000000 00000000 00000000  ................
 1340 d09e0000 00000000 07000000 10000000  ................
 1350 00000000 00000000 d89e0000 00000000  ................
 1360 07000000 11000000 00000000 00000000  ................
 1370 e09e0000 00000000 07000000 12000000  ................
 1380 00000000 00000000 e89e0000 00000000  ................
 1390 07000000 13000000 00000000 00000000  ................
 13a0 f09e0000 00000000 07000000 14000000  ................
 13b0 00000000 00000000 f89e0000 00000000  ................
 13c0 07000000 15000000 00000000 00000000  ................
 13d0 009f0000 00000000 07000000 17000000  ................
 13e0 00000000 00000000 089f0000 00000000  ................
 13f0 07000000 18000000 00000000 00000000  ................
 1400 109f0000 00000000 07000000 19000000  ................
 1410 00000000 00000000 189f0000 00000000  ................
 1420 07000000 1a000000 00000000 00000000  ................
 1430 209f0000 00000000 07000000 1c000000   ...............
 1440 00000000 00000000 289f0000 00000000  ........(.......
 1450 07000000 1d000000 00000000 00000000  ................
 1460 309f0000 00000000 07000000 1e000000  0...............
 1470 00000000 00000000 389f0000 00000000  ........8.......
 1480 07000000 1f000000 00000000 00000000  ................
 1490 409f0000 00000000 07000000 20000000  @........... ...
 14a0 00000000 00000000 489f0000 00000000  ........H.......
 14b0 07000000 21000000 00000000 00000000  ....!...........
 14c0 509f0000 00000000 07000000 22000000  P..........."...
 14d0 00000000 00000000 589f0000 00000000  ........X.......
 14e0 07000000 23000000 00000000 00000000  ....#...........
 14f0 609f0000 00000000 07000000 24000000  `...........$...
 1500 00000000 00000000 689f0000 00000000  ........h.......
 1510 07000000 25000000 00000000 00000000  ....%...........
 1520 709f0000 00000000 07000000 26000000  p...........&...
 1530 00000000 00000000 789f0000 00000000  ........x.......
 1540 07000000 27000000 00000000 00000000  ....'...........
 1550 809f0000 00000000 07000000 28000000  ............(...
 1560 00000000 00000000 889f0000 00000000  ................
 1570 07000000 29000000 00000000 00000000  ....)...........
 1580 909f0000 00000000 07000000 2a000000  ............*...
 1590 00000000 00000000 989f0000 00000000  ................
 15a0 07000000 2b000000 00000000 00000000  ....+...........
 15b0 a09f0000 00000000 07000000 2c000000  ............,...
 15c0 00000000 00000000 a89f0000 00000000  ................
 15d0 07000000 2e000000 00000000 00000000  ................
 15e0 b09f0000 00000000 07000000 2f000000  ............/...
 15f0 00000000 00000000 b89f0000 00000000  ................
 1600 07000000 30000000 00000000 00000000  ....0...........
 1610 c09f0000 00000000 07000000 31000000  ............1...
 1620 00000000 00000000                    ........        
Contents of section .init:
 2000 4883ec08 488b05cd 7f000048 85c07402  H...H......H..t.
 2010 ffd04883 c408c3                      ..H....         
Contents of section .plt:
 2020 ff352a7e 0000ff25 2c7e0000 0f1f4000  .5*~...%,~....@.
 2030 ff252a7e 00006800 000000e9 e0ffffff  .%*~..h.........
 2040 ff25227e 00006801 000000e9 d0ffffff  .%"~..h.........
 2050 ff251a7e 00006802 000000e9 c0ffffff  .%.~..h.........
 2060 ff25127e 00006803 000000e9 b0ffffff  .%.~..h.........
 2070 ff250a7e 00006804 000000e9 a0ffffff  .%.~..h.........
 2080 ff25027e 00006805 000000e9 90ffffff  .%.~..h.........
 2090 ff25fa7d 00006806 000000e9 80ffffff  .%.}..h.........
 20a0 ff25f27d 00006807 000000e9 70ffffff  .%.}..h.....p...
 20b0 ff25ea7d 00006808 000000e9 60ffffff  .%.}..h.....`...
 20c0 ff25e27d 00006809 000000e9 50ffffff  .%.}..h.....P...
 20d0 ff25da7d 0000680a 000000e9 40ffffff  .%.}..h.....@...
 20e0 ff25d27d 0000680b 000000e9 30ffffff  .%.}..h.....0...
 20f0 ff25ca7d 0000680c 000000e9 20ffffff  .%.}..h..... ...
 2100 ff25c27d 0000680d 000000e9 10ffffff  .%.}..h.........
 2110 ff25ba7d 0000680e 000000e9 00ffffff  .%.}..h.........
 2120 ff25b27d 0000680f 000000e9 f0feffff  .%.}..h.........
 2130 ff25aa7d 00006810 000000e9 e0feffff  .%.}..h.........
 2140 ff25a27d 00006811 000000e9 d0feffff  .%.}..h.........
 2150 ff259a7d 00006812 000000e9 c0feffff  .%.}..h.........
 2160 ff25927d 00006813 000000e9 b0feffff  .%.}..h.........
 2170 ff258a7d 00006814 000000e9 a0feffff  .%.}..h.........
 2180 ff25827d 00006815 000000e9 90feffff  .%.}..h.........
 2190 ff257a7d 00006816 000000e9 80feffff  .%z}..h.........
 21a0 ff25727d 00006817 000000e9 70feffff  .%r}..h.....p...
 21b0 ff256a7d 00006818 000000e9 60feffff  .%j}..h.....`...
 21c0 ff25627d 00006819 000000e9 50feffff  .%b}..h.....P...
 21d0 ff255a7d 0000681a 000000e9 40feffff  .%Z}..h.....@...
 21e0 ff25527d 0000681b 000000e9 30feffff  .%R}..h.....0...
 21f0 ff254a7d 0000681c 000000e9 20feffff  .%J}..h..... ...
 2200 ff25427d 0000681d 000000e9 10feffff  .%B}..h.........
 2210 ff253a7d 0000681e 000000e9 00feffff  .%:}..h.........
 2220 ff25327d 0000681f 000000e9 f0fdffff  .%2}..h.........
 2230 ff252a7d 00006820 000000e9 e0fdffff  .%*}..h ........
 2240 ff25227d 00006821 000000e9 d0fdffff  .%"}..h!........
 2250 ff251a7d 00006822 000000e9 c0fdffff  .%.}..h"........
 2260 ff25127d 00006823 000000e9 b0fdffff  .%.}..h#........
 2270 ff250a7d 00006824 000000e9 a0fdffff  .%.}..h$........
 2280 ff25027d 00006825 000000e9 90fdffff  .%.}..h%........
 2290 ff25fa7c 00006826 000000e9 80fdffff  .%.|..h&........
 22a0 ff25f27c 00006827 000000e9 70fdffff  .%.|..h'....p...
 22b0 ff25ea7c 00006828 000000e9 60fdffff  .%.|..h(....`...
 22c0 ff25e27c 00006829 000000e9 50fdffff  .%.|..h)....P...
 22d0 ff25da7c 0000682a 000000e9 40fdffff  .%.|..h*....@...
 22e0 ff25d27c 0000682b 000000e9 30fdffff  .%.|..h+....0...
 22f0 ff25ca7c 0000682c 000000e9 20fdffff  .%.|..h,.... ...
Contents of section .plt.got:
 2300 ff25e27c 00006690                    .%.|..f.        
Contents of section .text:
 2310 e82bfdff ffe826fd ffffe821 fdffffe8  .+....&....!....
 2320 1cfdffff e817fdff ffe812fd ffff6690  ..............f.
 2330 41574156 41554154 4189fc55 4889f553  AWAVAUATA..UH..S
 2340 4881eca8 05000048 8b3e6448 8b042528  H......H.>dH..%(
 2350 00000048 89842498 05000031 c0e84e0a  ...H..$....1..N.
 2360 0000488d 35dc3c00 00bf0600 0000e8bd  ..H.5.<.........
 2370 feffff48 8d35593d 0000488d 3d3d3d00  ...H.5Y=..H.===.
 2380 00e82afd ffff488d 3d313d00 00e8fefc  ..*...H.=1=.....
 2390 ffff488d 3d670900 00e80234 0000833d  ..H.=g.....4...=
 23a0 6b7c0000 020f844f 01000031 db4c8d2d  k|.....O...1.L.-
 23b0 8c760000 0f1f4000 4531c04c 89e9488d  .v....@.E1.L..H.
 23c0 153a3d00 004889ee 4489e7e8 30fdffff  .:=..H..D...0...
 23d0 83f8ff0f 84c00100 0083f86e 0f840801  ...........n....
 23e0 00007e1c 83f8720f 84050100 007f4183  ..~...r.......A.
 23f0 f86f7524 80cb80eb bf0f1f80 00000000  .ou$............
 2400 83f8610f 84a70000 007e5583 f8697538  ..a......~U..iu8
 2410 83cb40eb a30f1f00 83f8700f 85ee0300  ..@.......p.....
 2420 0083cb20 eb92662e 0f1f8400 00000000  ... ..f.........
 2430 83f8730f 85870000 0083cb01 e977ffff  ..s..........w..
 2440 ff0f1f80 00000000 83f86d0f 85be0300  ..........m.....
 2450 0083cb10 e95fffff ff0f1f80 00000000  ....._..........
 2460 3d7dffff ff757183 3da27b00 0001488d  =}...uq.=.{...H.
 2470 05953b00 00488d35 883b0000 488b3d25  ..;..H.5.;..H.=%
 2480 7c000048 0f45f048 8b0d8a7b 00004531  |..H.E.H...{..E1
 2490 c931c04c 8d05553c 0000488d 15193c00  .1.L..U<..H...<.
 24a0 00e8ea2b 000031ff e8e3fdff ff0f1f00  ...+..1.........
 24b0 bbffffff ffe9fefe ffff660f 1f440000  ..........f..D..
 24c0 83f8760f 85460300 0083cb08 e9e7feff  ..v..F..........
 24d0 ff0f1f80 00000000 3d7effff ff0f852c  ........=~.....,
 24e0 03000031 ffe87604 000083cb 02e9c6fe  ...1..v.........
 24f0 ffff83cb 04e9befe ffff4531 c0488d0d  ..........E1.H..
 2500 dc740000 4889ee44 89e7488d 15343b00  .t..H..D..H..4;.
 2510 00e8eafb ffff83f8 ff74543d 7dffffff  .........tT=}...
 2520 75b6833d e77a0000 01488d05 da3a0000  u..=.z...H...:..
 2530 488d35cd 3a000048 8b3d6a7b 0000480f  H.5.:..H.=j{..H.
 2540 45f05031 c0488b0d cc7a0000 6a004c8d  E.P1.H...z..j.L.
 2550 0d903b00 004c8d05 933b0000 488d1557  ..;..L...;..H..W
 2560 3b0000e8 282b0000 31ffe821 fdffff48  ;...(+..1..!...H
 2570 63053a7b 00004139 c40f855f 02000048  c.:{..A9..._...H
 2580 89e54889 efe8b6fb ffff83c0 017437bb  ..H..........t7.
 2590 10000000 e9510100 00486305 107b0000  .....Q...Hc..{..
 25a0 4139c40f 85350200 0085db75 454889e5  A9...5.....uEH..
 25b0 bb010000 004889ef e883fbff ff83c001  .....H..........
 25c0 0f851301 0000ba05 00000048 8d35483b  ...........H.5H;
 25d0 000031ff e8e7faff ff4889c3 e86ffaff  ..1......H...o..
 25e0 ff4889da bf010000 008b3031 c0e85efc  .H........01..^.
 25f0 fffff6c3 1f0f85c5 000000f6 c320755d  ............. u]
 2600 f6c3400f 859b0000 0080e380 0f858100  ..@.............
 2610 0000488b 3d8f7a00 00488b47 28483b47  ..H.=.z..H.G(H;G
 2620 300f838b 01000048 8d500148 895728c6  0......H.P.H.W(.
 2630 000a31c0 488b8c24 98050000 6448330c  ..1.H..$....dH3.
 2640 25280000 000f85ce 01000048 81c4a805  %(.........H....
 2650 00005b5d 415c415d 415e415f c34889e5  ..[]A\A]A^A_.H..
 2660 4889ef4c 8da50401 0000e8d1 faffff48  H..L...........H
 2670 8d35bb3a 00004c89 e7e822fb ffff85c0  .5.:..L...".....
 2680 0f849000 00004c89 e7e88202 0000e96d  ......L........m
 2690 ffffff48 8d3dc13a 0000e871 020000e9  ...H.=.:...q....
 26a0 6effffff 4889e548 89efe891 faffff48  n...H..H.......H
 26b0 8dbd0401 0000e855 020000e9 49ffffff  .......U....I...
 26c0 4889e548 89efe875 faffff83 c0010f84  H..H...u........
 26d0 f2feffff f6c30174 084889ef e82f0200  .......t.H.../..
 26e0 00f6c302 0f85ba00 0000f6c3 040f85a0  ................
 26f0 000000f6 c3080f85 86000000 f6c3100f  ................
 2700 84f6feff ff488dbd 04010000 e8ff0100  .....H..........
 2710 00e9e5fe ffff488d 35c53e00 00488d3d  ......H.5.>..H.=
 2720 123a0000 e847fbff ff4c8dac 24900100  .:...G...L..$...
 2730 004c8d3d 0c3a0000 4989c648 85c07519  .L.=.:..I..H..u.
 2740 e941ffff ffba0900 00004c89 fe4c89ef  .A........L..L..
 2750 e80bf9ff ff85c074 684c89f2 be000400  .......thL......
 2760 004c89ef e867faff ff4885c0 75d74c8d  .L...g...H..u.L.
 2770 a5040100 004c89f7 e8032d00 00e904ff  .....L....-.....
 2780 ffff488d bdc30000 00e88201 0000e969  ..H............i
 2790 ffffff48 8dbd8200 0000e871 010000e9  ...H.......q....
 27a0 4fffffff 488d7d41 e8630100 00e938ff  O...H.}A.c....8.
 27b0 ffffbe0a 000000e8 64f9ffff e971feff  ........d....q..
 27c0 ff488d35 86390000 4c89ef4c 8d25fa38  .H.5.9..L..L.%.8
 27d0 0000e809 fbffff48 85c07599 eb90488b  .......H..u...H.
 27e0 7cc500e8 c8230000 ba050000 00488d35  |....#.......H.5
 27f0 15390000 31ff4889 c3e8c2f8 ffff4889  .9..1.H.......H.
 2800 d931f631 ff4889c2 31c0e841 faffffbf  .1.1.H..1..A....
 2810 01000000 e8470100 00e8d2f8 ffff6690  .....G........f.
 2820 31ed4989 d15e4889 e24883e4 f050544c  1.I..^H..H...PTL
 2830 8d055a2f 0000488d 0df32e00 00488d3d  ..Z/..H......H.=
 2840 ecfaffff ff158677 0000f40f 1f440000  .......w.....D..
 2850 488d3d49 78000048 8d054278 00004839  H.=Ix..H..Bx..H9
 2860 f8741548 8b055e77 00004885 c07409ff  .t.H..^w..H..t..
 2870 e00f1f80 00000000 c30f1f80 00000000  ................
 2880 488d3d19 78000048 8d351278 00004829  H.=.x..H.5.x..H)
 2890 fe48c1fe 034889f0 48c1e83f 4801c648  .H...H..H..?H..H
 28a0 d1fe7414 488b0535 77000048 85c07408  ..t.H..5w..H..t.
 28b0 ffe0660f 1f440000 c30f1f80 00000000  ..f..D..........
 28c0 803d0178 00000075 2f554883 3d167700  .=.x...u/UH.=.w.
 28d0 00004889 e5740c48 8b3d2a77 0000e81d  ..H..t.H.=*w....
 28e0 faffffe8 68ffffff c605d977 0000015d  ....h......w...]
 28f0 c30f1f80 00000000 c30f1f80 00000000  ................
 2900 e97bffff ff662e0f 1f840000 00000090  .{...f..........
 2910 803db277 00000053 4889fb74 1c488b3d  .=.w...SH..t.H.=
 2920 84770000 488b4728 483b4730 7322488d  .w..H.G(H;G0s"H.
 2930 50014889 5728c600 20488b35 68770000  P.H.W(.. H.5hw..
 2940 4889df5b c6057e77 000001e9 30f8ffff  H..[..~w....0...
 2950 be200000 00e8c6f7 ffffebdd 0f1f4000  . ............@.
 2960 4154ba05 00000041 89fc5553 4883c480  AT.....A..USH...
 2970 488b1d69 77000064 488b0425 28000000  H..iw..dH..%(...
 2980 48894424 7831c085 ff742f48 8d354e38  H.D$x1...t/H.5N8
 2990 000031ff e827f7ff ff488b3d 20770000  ..1..'...H.= w..
 29a0 4889d9be 01000000 4889c231 c0e8fef8  H.......H..1....
 29b0 ffff4489 e7e8d6f8 ffff31ff 488d354e  ..D.......1.H.5N
 29c0 360000e8 f8f6ffff 4889dabf 01000000  6.......H.......
 29d0 4889c631 c0e866f8 ffff833d 2f760000  H..1..f....=/v..
 29e0 01488b1d c0760000 ba050000 00488d35  .H...v.......H.5
 29f0 34360000 0f84f601 000031ff 488d2d01  46........1.H.-.
 2a00 360000e8 b8f6ffff 4889de48 89c7e86d  6.......H..H...m
 2a10 f7ffff48 8b1d8e76 000031ff ba050000  ...H...v..1.....
 2a20 00488d35 803a0000 e893f6ff ff4889de  .H.5.:.......H..
 2a30 4889c7e8 48f7ffff 488b1d69 76000031  H...H...H..iv..1
 2a40 ffba0500 0000488d 358b3a00 00e86ef6  ......H.5.:...n.
 2a50 ffff4889 de4889e3 4889c7e8 20f7ffff  ..H..H..H... ...
 2a60 488d05a3 35000083 3da27500 0001488d  H...5...=.u...H.
 2a70 0d103600 00480f45 e8488d05 c6350000  ..6..H.E.H...5..
 2a80 48894c24 30488d0d 03360000 48894424  H.L$0H...6..H.D$
 2a90 08488d05 26360000 488d3570 35000048  .H..&6..H.5p5..H
 2aa0 89442410 488d05ab 35000048 89442418  .D$.H...5..H.D$.
 2ab0 488d05b5 35000048 89442420 488d05b3  H...5..H.D$ H...
 2ac0 35000048 894c2440 488d0dca 35000048  5..H.L$@H...5..H
 2ad0 89342448 89442428 48894424 38488944  .4$H.D$(H.D$8H.D
 2ae0 24484889 4c245048 89442458 48c74424  $HH.L$PH.D$XH.D$
 2af0 60000000 0048c744 24680000 0000eb0c  `....H.D$h......
 2b00 4883c310 488b3348 85f6740c 4889efe8  H...H.3H..t.H...
 2b10 8cf6ffff 85c075e8 488b5b08 ba050000  ......u.H.[.....
 2b20 00488d35 7b350000 31ff4885 db0f84ee  .H.5{5..1.H.....
 2b30 000000e8 88f5ffff bf010000 00488d0d  .............H..
 2b40 cc390000 488d156f 35000048 89c631c0  .9..H..o5..H..1.
 2b50 e8ebf6ff ff31f6bf 05000000 e8cff6ff  .....1..........
 2b60 ff4885c0 741cba03 00000048 8d355635  .H..t......H.5V5
 2b70 00004889 c7e8e6f4 ffff85c0 0f852801  ..H...........(.
 2b80 000031ff ba050000 00488d35 f0390000  ..1......H.5.9..
 2b90 e82bf5ff ff4889e9 bf010000 00488d15  .+...H.......H..
 2ba0 6c390000 4889c631 c0e892f6 ffff4839  l9..H..1......H9
 2bb0 dd488d0d 8d340000 488d2da1 34000048  .H...4..H.-.4..H
 2bc0 0f45e931 ff488d35 d4390000 ba050000  .E.1.H.5.9......
 2bd0 00e8eaf4 ffff4889 e94889da bf010000  ......H..H......
 2be0 004889c6 31c0e855 f6ffffe9 c2fdffff  .H..1..U........
 2bf0 488d3511 36000031 ffe8c2f4 ffff4889  H.5.6..1......H.
 2c00 de4889c7 e877f5ff ff488b1d 98740000  .H...w...H...t..
 2c10 ba050000 00488d35 5c370000 e9d9fdff  .....H.5\7......
 2c20 ffe89af4 ffffbf01 00000048 8d0dde38  ...........H...8
 2c30 0000488d 15813400 004889c6 31c0e8fd  ..H...4..H..1...
 2c40 f5ffff31 f6bf0500 0000e8e1 f5ffff48  ...1...........H
 2c50 85c07418 ba030000 00488d35 68340000  ..t......H.5h4..
 2c60 4889c7e8 f8f3ffff 85c0753b ba050000  H.........u;....
 2c70 00488d35 08390000 31ff4889 ebe83ef4  .H.5.9..1.H...>.
 2c80 ffff4889 e9bf0100 0000488d 157f3800  ..H.......H...8.
 2c90 004889c6 31c0488d 2dc33300 00e89ef5  .H..1.H.-.3.....
 2ca0 ffffe91c ffffff48 89eb31ff ba050000  .......H..1.....
 2cb0 00488d35 80380000 e803f4ff ff4889ea  .H.5.8.......H..
 2cc0 bf010000 004889c6 31c0e871 f5ffffe9  .....H..1..q....
 2cd0 aefeffff 662e0f1f 84000000 00006690  ....f.........f.
 2ce0 48893df1 730000c3 0f1f8400 00000000  H.=.s...........
 2cf0 40883dd9 730000c3 0f1f8400 00000000  @.=.s...........
 2d00 55534883 ec08488b 3d9b7300 00e81e29  USH...H.=.s....)
 2d10 000085c0 7416e835 f3ffff80 3dae7300  ....t..5....=.s.
 2d20 00004889 c3741c83 38207517 488b3d8d  ..H..t..8 u.H.=.
 2d30 730000e8 f8280000 85c07546 4883c408  s....(....uFH...
 2d40 5b5dc331 ffba0500 0000488d 35873800  [].1......H.5.8.
 2d50 00e86af3 ffff488b 3d7b7300 004889c5  ..j...H.={s..H..
 2d60 4885ff74 28e8361c 00008b33 4989e831  H..t(.6....3I..1
 2d70 ff4889c1 488d1569 38000031 c0e8cef4  .H..H..i8..1....
 2d80 ffff8b3d 98720000 e8e3f2ff ff8b3348  ...=.r........3H
 2d90 89c1488d 154f3800 0031ff31 c0e8aef4  ..H..O8..1.1....
 2da0 ffffebde 662e0f1f 84000000 00006690  ....f.........f.
 2db0 534885ff 7477be2f 00000048 89fbe86d  SH..tw./...H...m
 2dc0 f3ffff48 85c07455 4c8d4001 4c89c248  ...H..tUL.@.L..H
 2dd0 29da4883 fa067e45 488d70fa b9070000  ).H...~EH.p.....
 2de0 00488d3d 40380000 f3a60f97 c280da00  .H.=@8..........
 2df0 84d27529 b9030000 00488d3d 30380000  ..u).....H.=08..
 2e00 4c89c64c 89c3f3a6 0f97c280 da0084d2  L..L............
 2e10 750b488d 58044889 1d837200 0048891d  u.H.X.H...r..H..
 2e20 bc720000 48891d8d 7200005b c3488b0d  .r..H...r..[.H..
 2e30 8c720000 ba370000 00be0100 0000488d  .r...7........H.
 2e40 3dab3700 00e856f4 ffffe8f1 f1ffff90  =.7...V.........
 2e50 4154ba05 00000041 89f44889 fe554889  AT.....A..H..UH.
 2e60 fd31ff53 e857f2ff ff4889c3 4839c574  .1.S.W...H..H9.t
 2e70 0f4889d8 5b5d415c c30f1f80 00000000  .H..[]A\........
 2e80 e86b2800 000fb610 83e2df80 fa557540  .k(..........Uu@
 2e90 0fb65001 83e2df80 fa540f85 80000000  ..P......T......
 2ea0 0fb65002 83e2df80 fa467574 8078032d  ..P......Fut.x.-
 2eb0 756e8078 04387568 80780500 7562803b  un.x.8uh.x..ub.;
 2ec0 600f8479 00000048 8d1d6837 0000eba1  `..y...H..h7....
 2ed0 80fa4775 4b0fb650 0183e2df 80fa4275  ..GuK..P......Bu
 2ee0 3f807802 31753980 78033875 33807804  ?.x.1u9.x.8u3.x.
 2ef0 30752d80 78053375 27807806 30752180  0u-.x.3u'.x.0u!.
 2f00 78070075 1b803b60 7446488d 1d293700  x..u..;`tFH..)7.
 2f10 00e95bff ffff662e 0f1f8400 00000000  ..[...f.........
 2f20 4183fc09 488d051a 37000048 8d1d0237  A...H...7..H...7
 2f30 0000480f 45d84889 d85b5d41 5cc36690  ..H.E.H..[]A\.f.
 2f40 488d1dfa 360000e9 25ffffff 0f1f4000  H...6...%.....@.
 2f50 488d1de6 360000e9 15ffffff 0f1f4000  H...6.........@.
 2f60 41574156 4989fe41 55415449 89f45548  AWAVI..AUATI..UH
 2f70 89cd5344 89cb4881 ecc80000 00488b84  ..SD..H......H..
 2f80 24000100 00488954 24104489 44240848  $....H.T$.D.D$.H
 2f90 89442420 488b8424 08010000 44898c24  .D$ H..$....D..$
 2fa0 88000000 48894424 68488b84 24100100  ....H.D$hH..$...
 2fb0 00488944 24606448 8b042528 00000048  .H.D$`dH..%(...H
 2fc0 898424b8 00000031 c0e802f1 ffff448b  ..$....1......D.
 2fd0 5c240883 e3024889 4424580f 95442443  \$....H.D$X..D$C
 2fe0 4183fb0a 0f8726f3 ffff488d 0daf3600  A.....&...H...6.
 2ff0 004489da 48630491 4801c8ff e0c64424  .D..Hc..H.....D$
 3000 42014531 edc68424 8d000000 0048c744  B.E1...$.....H.D
 3010 24500000 0000c644 244301c6 44240800  $P.....D$C..D$..
 3020 488d051e 36000045 31ff41bb 02000000  H...6..E1.A.....
 3030 48c74424 18010000 00488944 24484531  H.D$.....H.D$HE1
 3040 d24489d8 4589e849 89eb4c89 d54189c2  .D..E..I..L..A..
 3050 4939eb41 0f95c549 83fbff75 0d488b44  I9.A...I...u.H.D
 3060 2410803c 2800410f 95c54584 ed0f8455  $..<(.A...E....U
 3070 07000041 83fa0248 8b7c2410 0f95c022  ...A...H.|$...."
 3080 4424084c 8d0c2f88 44240c0f 841f0500  D$.L../.D$......
 3090 00488b44 24184885 c00f84a1 06000048  .H.D$.H........H
 30a0 8d5c0500 4983fbff 752d4883 f8017627  .\..I...u-H...v'
 30b0 44895424 38448844 24304c89 4c2428e8  D.T$8D.D$0L.L$(.
 30c0 1cf0ffff 448b5424 38440fb6 4424304c  ....D.T$8D..D$0L
 30d0 8b4c2428 4989c34c 39db0f87 60060000  .L$(I..L9...`...
 30e0 488b5424 18488b74 24484c89 cf448954  H.T$.H.t$HL..D.T
 30f0 24444c89 5c243844 88442430 4c894c24  $DL.\$8D.D$0L.L$
 3100 28e86af0 ffff4c8b 4c242844 0fb64424  (.j...L.L$(D..D$
 3110 3085c04c 8b5c2438 448b5424 440f851d  0..L.\$8D.T$D...
 3120 06000080 7c244300 0f85fd0f 0000410f  ....|$C.......A.
 3130 b61980fb 7e0f8712 04000048 8d0d8a35  ....~......H...5
 3140 00000fb6 d3486304 914801c8 ffe06690  .....Hc..H....f.
 3150 c644240c 004983fb 010f95c0 4983fbff  .D$..I......I...
 3160 750c488b 44241080 7801000f 95c04183  u.H.D$..x.....A.
 3170 fa020f94 c284c00f 85060200 004885ed  .............H..
 3180 0f85fd01 0000807c 24430074 0b84d20f  .......|$C.t....
 3190 855d0400 000f1f00 0fb64424 0883f001  .]........D$....
 31a0 09d083f0 010a4424 430f84f1 00000031  ......D$C......1
 31b0 c0488b74 24204885 f60f84e1 00000089  .H.t$ H.........
 31c0 da89d9c0 ea050fb6 d28b1496 d3ea83e2  ................
 31d0 010f84c9 00000041 83fa020f 94c2807c  .......A.......|
 31e0 2443000f 85bf0100 004489c0 83f00120  $C.......D..... 
 31f0 d0742f4d 39fc7605 43c6043e 27498d57  .t/M9.v.C..>'I.W
 3200 014c39e2 730643c6 443e0124 498d5702  .L9.s.C.D>.$I.W.
 3210 4c39e273 0643c644 3e022749 83c70341  L9.s.C.D>.'I...A
 3220 89c04d39 fc760543 c6043e5c 4983c701  ..M9.v.C..>\I...
 3230 4883c501 4d39e773 0443881c 3e0fb67c  H...M9.s.C..>..|
 3240 24424983 c701b800 00000045 84ed0f44  $BI........E...D
 3250 f840887c 2442e9f5 fdffff0f 1f440000  .@.|$B.......D..
 3260 807c2443 000f85b5 0e00004d 85e40f84  .|$C.......M....
 3270 18080000 31d24883 7c245000 0f850a08  ....1.H.|$P.....
 3280 00004c89 64245049 83c70331 c04531c0  ..L.d$PI...1.E1.
 3290 4488ac24 8d000000 4989d4bb 27000000  D..$....I...'...
 32a0 4183fa02 0f94c280 7c240c00 0f852cff  A.......|$....,.
 32b0 ffff83f0 014883c5 014421c0 84c00f84  .....H...D!.....
 32c0 70ffffff 4d39fc76 0543c604 3e27498d  p...M9.v.C..>'I.
 32d0 47014939 c4760643 c6443e01 274983c7  G.I9.v.C.D>.'I..
 32e0 024531c0 e94bffff ff0f1f80 00000000  .E1..K..........
 32f0 c644240c 004183fa 020f84b1 05000041  .D$..A.........A
 3300 83fa050f 84670500 004183fa 02bb3f00  .....g...A....?.
 3310 00000f94 c24531ed e97bfeff ff0f1f00  .....E1..{......
 3320 c644240c 004183fa 020f8431 ffffff44  .D$..A.....1...D
 3330 88ac248d 00000031 d2bb2700 0000e955  ..$....1..'....U
 3340 feffff0f 1f440000 c644240c 000fb654  .....D...D$....T
 3350 24082254 2443bb5c 000000b9 5c000000  $."T$C.\....\...
 3360 48837c24 18000f95 c020c20f 856a0b00  H.|$..... ...j..
 3370 000f1f80 00000000 807c2408 000f85c1  .........|$.....
 3380 0e000045 31ede90d feffff0f 1f440000  ...E1........D..
 3390 bb6e0000 0031d245 31ed807c 2443000f  .n...1.E1..|$C..
 33a0 8444feff ff0f1f00 4c89dd89 d04589d3  .D......L....E..
 33b0 20442408 807c2408 00b80400 0000440f   D$..|$.......D.
 33c0 45d84883 ec084589 d84889e9 ff742468  E.H...E..H...t$h
 33d0 4c89e64c 89f7ff74 24786a00 448b8c24  L..L...t$xj.D..$
 33e0 a8000000 488b5424 304183e1 fde86efb  ....H.T$0A....n.
 33f0 ffff4883 c4204989 c7488b9c 24b80000  ..H.. I..H..$...
 3400 00644833 1c252800 00004c89 f80f85d6  .dH3.%(...L.....
 3410 0d000048 81c4c800 00005b5d 415c415d  ...H......[]A\A]
 3420 415e415f c30f1f00 bb740000 00e963ff  A^A_.....t....c.
 3430 ffff660f 1f440000 c644240c 0031d2e9  ..f..D...D$..1..
 3440 3fffffff 0f1f4000 c644240c 004183fa  ?.....@..D$..A..
 3450 02bb0d00 0000b972 0000000f 94c2e915  .......r........
 3460 ffffff0f 1f440000 bb660000 00807c24  .....D...f....|$
 3470 43000f85 5b0c0000 4531ede9 a2fdffff  C...[...E1......
 3480 bb760000 00ebe666 0f1f8400 00000000  .v.....f........
 3490 807c2443 000f85e3 0c0000c6 44240c00  .|$C........D$..
 34a0 4183fa02 4489c00f 94c283f0 0120d00f  A...D........ ..
 34b0 84c30500 004d39fc 760543c6 043e2749  .....M9.v.C..>'I
 34c0 8d4f0149 39cc7606 43c6443e 0124498d  .O.I9.v.C.D>.$I.
 34d0 4f024939 cc760643 c6443e02 27498d4f  O.I9.v.C.D>.'I.O
 34e0 034939cc 0f863607 000041c6 040e5c41  .I9...6...A...\A
 34f0 89c04c8d 79014183 fa020f84 600a0000  ..L.y.A.....`...
 3500 488d4501 bb300000 004c39d8 7319488b  H.E..0...L9.s.H.
 3510 4424100f b6442801 88442428 83e8303c  D$...D(..D$(..0<
 3520 090f866a 0900000f b6442408 83f00108  ...j.....D$.....
 3530 d04489e8 41bd0000 00000f84 71fcffff  .D..A.......q...
 3540 e95bfdff ff0f1f00 c644240c 0048837c  .[.......D$..H.|
 3550 2458010f 85770300 00448954 24384c89  $X...w...D.T$8L.
 3560 5c243044 88442428 e883edff ff0fb6d3  \$0D.D$(........
 3570 440fb644 24284c8b 5c243048 8b00448b  D..D$(L.\$0H..D.
 3580 542438bf 01000000 0fb70450 66250040  T$8........Pf%.@
 3590 410f95c5 0f94c222 54240884 d20f852b  A......"T$.....+
 35a0 05000041 83fa020f 94c2e9e9 fbffff90  ...A............
 35b0 410fb619 80fb7e77 94488d0d 08330000  A.....~w.H...3..
 35c0 0fb6d348 63049148 01c8ffe0 0f1f4000  ...Hc..H......@.
 35d0 bb0a0000 00b96e00 00004183 fa020fb6  ......n...A.....
 35e0 4424430f 94c220d0 8844240c 0f8486fd  D$C... ..D$.....
 35f0 ffff4c89 dd41bb02 000000e9 b4fdffff  ..L..A..........
 3600 bb090000 00b97400 0000ebce 0f1f4000  ......t.......@.
 3610 4183fa02 bb080000 00b96200 00000f94  A.........b.....
 3620 c2e952fd ffff662e 0f1f8400 00000000  ..R...f.........
 3630 4183fa02 bb070000 00b96100 00000f94  A.........a.....
 3640 c2e932fd ffff662e 0f1f8400 00000000  ..2...f.........
 3650 807c2408 000f8535 fefffff6 84248800  .|$....5.....$..
 3660 0000010f 855c0400 004183fa 02c64424  .....\...A....D$
 3670 0c000f94 c24531ed 31dbe919 fbffff90  .....E1.1.......
 3680 4183fa02 0f85c3fc ffff807c 2443000f  A..........|$C..
 3690 858b0a00 004883c5 014489c0 4531edbb  .....H...D..E1..
 36a0 5c000000 e913fcff ff0f1f80 00000000  \...............
 36b0 4183fa02 0f94c2e9 c1faffff 0f1f4000  A.............@.
 36c0 4183fa02 0f94c245 31ede9b7 faffff90  A......E1.......
 36d0 4183fa02 bb200000 000f94c2 e9a5faff  A.... ..........
 36e0 ff0f1f80 00000000 bb0d0000 00b97200  ..............r.
 36f0 0000e9e3 feffff66 0f1f8400 00000000  .......f........
 3700 4183fa02 bb0c0000 00b96600 00000f94  A.........f.....
 3710 c2e962fc ffff662e 0f1f8400 00000000  ..b...f.........
 3720 4183fa02 bb0b0000 00b97600 00000f94  A.........v.....
 3730 c2e942fc ffff662e 0f1f8400 00000000  ..B...f.........
 3740 410fb619 80fb7e0f 87fbfdff ff488d0d  A.....~......H..
 3750 70330000 0fb6d348 63049148 01c8ffe0  p3.....Hc..H....
 3760 31c0440f b66c240c 8844240c 31c0e93e  1.D..l$..D$.1..>
 3770 faffff0f 1f440000 31c04885 ed0f85e5  .....D..1.H.....
 3780 02000044 0fb66c24 0c31d288 44240ce9  ...D..l$.1..D$..
 3790 04faffff 0f1f4000 31c0bb20 000000eb  ......@.1.. ....
 37a0 c10f1f80 00000000 bb620000 00e9e3fb  .........b......
 37b0 ffff660f 1f440000 bb610000 00e9abfc  ..f..D...a......
 37c0 ffff660f 1f440000 4183fa02 4589c54c  ..f..D..A...E..L
 37d0 89dd0f94 c24d85ff 750a8454 24430f85  .....M..u..T$C..
 37e0 fa090000 0fb64424 4383f001 20c20f84  ......D$C... ...
 37f0 42090000 80bc248d 00000000 0f843609  B.....$.......6.
 3800 0000807c 2442000f 85850900 004d85e4  ...|$B.......M..
 3810 0f94c048 837c2450 000f95c2 20d00f84  ...H.|$P.... ...
 3820 ad090000 488b5424 50488d1d 152e0000  ....H.T$PH......
 3830 4c8b6424 5041c606 2741bb02 00000041  L.d$PA..'A.....A
 3840 bf010000 0048895c 244848c7 44241801  .....H.\$HH.D$..
 3850 000000c6 44244300 8884248d 00000048  ....D$C...$....H
 3860 89542450 e9d5f7ff ff0f1f80 00000000  .T$P............
 3870 f6842488 00000004 741e488d 45024c39  ..$.....t.H.E.L9
 3880 d8731548 8b5c2410 807c2b01 3f0f84dd  .s.H.\$..|+.?...
 3890 0600000f 1f440000 31d24531 edbb3f00  .....D..1.E1..?.
 38a0 0000e9f1 f8ffff66 0f1f8400 00000000  .......f........
 38b0 807c2443 000f8565 08000045 31ed31c0  .|$C...e...E1.1.
 38c0 bb3f0000 00e9d6f9 ffff660f 1f440000  .?........f..D..
 38d0 488d8424 b0000000 48c78424 b0000000  H..$....H..$....
 38e0 00000000 48894424 704983fb ff752c48  ....H.D$pI...u,H
 38f0 8b7c2410 44895424 38448844 24304c89  .|$.D.T$8D.D$0L.
 3900 4c2428e8 d8e7ffff 448b5424 38440fb6  L$(.....D.T$8D..
 3910 4424304c 8b4c2428 4989c331 f6488d84  D$0L.L$(I..1.H..
 3920 24ac0000 00889c24 8f000000 4c897424  $......$....L.t$
 3930 784889f3 4c8b7424 70488944 24384c89  xH..L.t$pH.D$8L.
 3940 8c249800 00004488 84248e00 00004889  .$....D..$....H.
 3950 6c24304c 89bc2490 0000004c 89a42480  l$0L..$....L..$.
 3960 0000004c 895c2428 44895424 44eb2b90  ...L.\$(D.T$D.+.
 3970 8bbc24ac 000000e8 54e9ffff 4c89f785  ..$.....T...L...
 3980 c0b80000 0000440f 44e84801 ebe82ee9  ......D.D.H.....
 3990 ffff85c0 0f855705 0000488b 44243048  ......W...H.D$0H
 39a0 8b542428 4c89f148 8b7c2438 4c8d3c18  .T$(L..H.|$8L.<.
 39b0 488b4424 104c29fa 4e8d2438 4c89e6e8  H.D$.L).N.$8L...
 39c0 dc1b0000 4889c548 85c00f84 21050000  ....H..H....!...
 39d0 4883f8ff 0f840a06 00004883 f8fe0f84  H.........H.....
 39e0 45060000 837c2444 02758580 7c244300  E....|$D.u..|$C.
 39f0 0f847aff ffff4883 f8010f84 70ffffff  ..z...H.....p...
 3a00 488b7424 104a8d44 3e014801 ee4c01fe  H.t$.J.D>.H..L..
 3a10 eb13660f 1f440000 4883c001 4839c60f  ..f..D..H...H9..
 3a20 844bffff ff0fb638 8d4fa580 f92177e8  .K.....8.O...!w.
 3a30 ba010000 0048d3e2 48b92b00 00000200  .....H..H.+.....
 3a40 00004885 ca74d14c 8b742478 4c8ba424  ..H..t.L.t$xL..$
 3a50 80000000 41bb0200 0000488b 6c2428e9  ....A.....H.l$(.
 3a60 50f9ffff 0f1f4000 8844240c 4531ede9  P.....@..D$.E1..
 3a70 3bf7ffff 0f1f4000 4c89f94d 39fc0f86  ;.....@.L..M9...
 3a80 6efaffff 4489c0e9 5efaffff 4d39fc76  n...D...^...M9.v
 3a90 0543c604 3e27498d 47014939 c4760643  .C..>'I.G.I9.v.C
 3aa0 c6443e01 5c498d47 024939c4 0f869c07  .D>.\I.G.I9.....
 3ab0 00004c89 e243c644 3e02274c 8b642450  ..L..C.D>.'L.d$P
 3ac0 e9bdf7ff ff4883c5 01e982f5 ffff0fb6  .....H..........
 3ad0 54240845 31ed4889 f944886c 242831f6  T$.E1.H..D.l$(1.
 3ae0 440fb66c 24434801 e90fb67c 240c4c8b  D..l$CH....|$.L.
 3af0 4c2410e9 b6000000 0f1f8400 00000000  L$..............
 3b00 4183fa02 0f94c045 84ed0f85 01010000  A......E........
 3b10 4489c683 f6014020 f0742f4d 39fc7605  D.....@ .t/M9.v.
 3b20 43c6043e 27498d77 014939f4 760643c6  C..>'I.w.I9.v.C.
 3b30 443e0124 498d7702 4939f476 0643c644  D>.$I.w.I9.v.C.D
 3b40 3e022749 83c70341 89c04d39 fc760543  >.'I...A..M9.v.C
 3b50 c6043e5c 498d4701 4939c476 0d89d8c0  ..>\I.G.I9.v....
 3b60 e80683c0 30438844 3e01498d 47024939  ....0C.D>.I.G.I9
 3b70 c4761089 d8c0e803 83e00783 c0304388  .v...........0C.
 3b80 443e0283 e3074883 c5014983 c70383c3  D>....H...I.....
 3b90 304839cd 0f833603 000089d6 4d39fc76  0H9...6.....M9.v
 3ba0 0443881c 3e410fb6 1c294983 c70184d2  .C..>A...)I.....
 3bb0 0f854aff ffff89f0 83f00144 21c04084  ..J........D!.@.
 3bc0 ff740e4d 39fc7605 43c6043e 5c4983c7  .t.M9.v.C..>\I..
 3bd0 014883c5 014839cd 732c84c0 0f840803  .H...H9.s,......
 3be0 00004d39 fc760543 c6043e27 498d4701  ..M9.v.C..>'I.G.
 3bf0 4939c476 0643c644 3e012749 83c70231  I9.v.C.D>.'I...1
 3c00 ff4531c0 eb96440f b66c2428 e9abf6ff  .E1...D..l$(....
 3c10 ff4c89dd 88442408 4589d3e9 94f7ffff  .L...D$.E.......
 3c20 4983c704 4189c045 31edbb30 000000e9  I...A..E1..0....
 3c30 6cf6ffff 85db0f85 c1f3ffff c6442408  l............D$.
 3c40 014d85e4 0f85e405 0000488d 05f42900  .M........H...).
 3c50 00c64424 42014531 ed41bf01 00000048  ..D$B.E1.A.....H
 3c60 c7442450 00000000 41bb0200 0000c684  .D$P....A.......
 3c70 248d0000 0000c644 24430048 c7442418  $......D$C.H.D$.
 3c80 01000000 48894424 48e9b0f3 ffff85db  ....H.D$H.......
 3c90 0f854a04 00004d85 e40f84a3 02000041  ..J...M........A
 3ca0 c6062245 31edc644 244201c6 84248d00  .."E1..D$B...$..
 3cb0 00000048 c7442450 00000000 488d0571  ...H.D$P....H..q
 3cc0 290000c6 44244300 41bf0100 0000c644  )...D$C.A......D
 3cd0 24080148 c7442418 01000000 48894424  $..H.D$.....H.D$
 3ce0 48e958f3 ffff4183 fb0a7437 4489de48  H.X...A...t7D..H
 3cf0 8d3d5129 00004489 5c2408e8 50f1ffff  .=Q)..D.\$..P...
 3d00 448b5c24 08488d3d 39290000 48894424  D.\$.H.=9)..H.D$
 3d10 684489de e837f1ff ff448b5c 24084889  hD...7...D.\$.H.
 3d20 44246045 31ff85db 0f847703 0000488b  D$`E1.....w...H.
 3d30 5c246044 895c240c 4531ed48 89dfe89d  \$`D.\$.E1.H....
 3d40 e3ffff48 895c2448 448b5c24 0c488944  ...H.\$HD.\$.H.D
 3d50 2418c644 244201c6 84248d00 00000048  $..D$B...$.....H
 3d60 c7442450 00000000 c6442408 01e9ccf2  .D$P.....D$.....
 3d70 ffff488d 05bb2800 00c64424 42014531  ..H...(...D$B.E1
 3d80 ed4531ff c684248d 00000000 41bb0500  .E1...$.....A...
 3d90 000048c7 44245000 000000c6 44244301  ..H.D$P.....D$C.
 3da0 c6442408 0148c744 24180100 00004889  .D$..H.D$.....H.
 3db0 442448e9 86f2ffff c6442442 014531ed  D$H......D$B.E1.
 3dc0 4531ffc6 84248d00 00000048 c7442450  E1...$.....H.D$P
 3dd0 00000000 c6442443 00c64424 080148c7  .....D$C..D$..H.
 3de0 44241800 00000048 c7442448 00000000  D$.....H.D$H....
 3df0 e949f2ff ffc64424 42014531 ed4531ff  .I....D$B.E1.E1.
 3e00 c684248d 00000000 48c74424 50000000  ..$.....H.D$P...
 3e10 00c64424 4300c644 24080048 c7442418  ..D$C..D$..H.D$.
 3e20 00000000 48c74424 48000000 00e90cf2  ....H.D$H.......
 3e30 ffffc644 24420145 31edc684 248d0000  ...D$B.E1...$...
 3e40 000048c7 44245000 000000c6 44244301  ..H.D$P.....D$C.
 3e50 c6442408 01e9c6f1 ffff0fb6 44240ce9  .D$.........D$..
 3e60 36f9ffff 31d24531 edbb6200 0000e976  6...1.E1..b....v
 3e70 f3ffffbb 61000000 e9fbf5ff ff0fb644  ....a..........D
 3e80 240ce9db f8ffff0f b644240c e9e9f8ff  $........D$.....
 3e90 ff4d39fc 760543c6 043e3048 8d410249  .M9.v.C..>0H.A.I
 3ea0 39c47606 41c6440e 02304c8d 7903bb30  9.v.A.D..0L.y..0
 3eb0 000000e9 6ff6ffff 85db0f85 2e030000  ....o...........
 3ec0 c6442408 00e977fd ffff660f 1f440000  .D$...w...f..D..
 3ed0 440fb66c 2428e959 f3ffff48 83c50144  D..l$(.Y...H...D
 3ee0 89c04531 ede9d2f3 ffff31ff e9abfcff  ..E1......1.....
 3ef0 ff4889df 4489ea48 8b6c2430 4c8b7424  .H..D..H.l$0L.t$
 3f00 780fb69c 248f0000 004c8b5c 242883f2  x...$....L.\$(..
 3f10 01440fb6 84248e00 00004c8b bc249000  .D...$....L..$..
 3f20 00004c8b a4248000 0000448b 54244422  ..L..$....D.T$D"
 3f30 54240848 83ff010f 8799fbff ffe959f6  T$.H..........Y.
 3f40 ffff48c7 44245000 00000045 31edc644  ..H.D$P....E1..D
 3f50 244201c6 84248d00 000000e9 5cfdffff  $B...$......\...
 3f60 4489e8bb 30000000 4531ede9 30f3ffff  D...0...E1..0...
 3f70 0fb61c03 80fb3e0f 871bf9ff ff48be00  ......>......H..
 3f80 00000082 a3007048 0fa3de0f 8307f9ff  ......pH........
 3f90 ff807c24 43000f85 8f010000 4d39fc76  ..|$C.......M9.v
 3fa0 0543c604 3e3f498d 57014939 d4760643  .C..>?I.W.I9.v.C
 3fb0 c6443e01 22498d57 024939d4 760643c6  .D>."I.W.I9.v.C.
 3fc0 443e0222 498d5703 4939d476 0643c644  D>."I.W.I9.v.C.D
 3fd0 3e033f49 83c70431 d24531ed 4889c5e9  >.?I...1.E1.H...
 3fe0 43f5ffff 4889df48 8b6c2430 4c8b7424  C...H..H.l$0L.t$
 3ff0 784531ed 440fb684 248e0000 000fb69c  xE1.D...$.......
 4000 248f0000 004c8bbc 24900000 004c8ba4  $....L..$....L..
 4010 24800000 004c8b5c 2428448b 5424440f  $....L.\$(D.T$D.
 4020 b6542408 e90affff ff4c8b5c 24284c89  .T$......L.\$(L.
 4030 fe4c89e1 4889d848 89df488b 6c24304c  .L..H..H..H.l$0L
 4040 8b742478 4c8b8c24 98000000 0fb69c24  .t$xL..$.......$
 4050 8f000000 440fb684 248e0000 004c8bbc  ....D...$....L..
 4060 24900000 004c8ba4 24800000 00448b54  $....L..$....D.T
 4070 24444c39 de732180 3900750b eb1a6690  $DL9.s!.9.u...f.
 4080 41803c01 00740e48 83c00148 8d540500  A.<..t.H...H.T..
 4090 4c39da72 eb4889c7 0fb65424 084531ed  L9.r.H....T$.E1.
 40a0 e98efeff ff488b54 24680fb6 0284c00f  .....H.T$h......
 40b0 8479fcff ff0f1f00 4d39fc76 04438804  .y......M9.v.C..
 40c0 3e4983c7 01420fb6 043a84c0 75eae95b  >I...B...:..u..[
 40d0 fcffff4c 89dd31c0 4589d3e9 d0f2ffff  ...L..1.E.......
 40e0 488d054d 250000c6 44244201 4531ed45  H..M%...D$B.E1.E
 40f0 31ffc684 248d0000 000048c7 44245000  1...$.....H.D$P.
 4100 000000c6 44244301 c6442408 0148c744  ....D$C..D$..H.D
 4110 24180100 00004889 442448e9 1eefffff  $.....H.D$H.....
 4120 4c89dd45 89d3e989 f2ffff4c 89dd4589  L..E.......L..E.
 4130 d3e98cf2 ffff89c2 488b4424 484885c0  ........H.D$HH..
 4140 742984d2 74250fb6 0884c974 1e4c89fa  t)..t%.....t.L..
 4150 4c29f849 39d47604 41880c16 4883c201  L).I9.v.A...H...
 4160 0fb60c10 84c975eb 4989d74d 39fc0f86  ......u.I..M9...
 4170 85f2ffff 43c6043e 00e97bf2 ffff4183  ....C..>..{...A.
 4180 fa024c89 dd4589d3 0f944424 08e922f2  ..L..E....D$..".
 4190 ffff4883 ec0841b8 05000000 4889e94c  ..H...A.....H..L
 41a0 89f7ff74 2468ff74 2478ff74 2438448b  ...t$h.t$x.t$8D.
 41b0 8c24a800 0000488b 54243048 8b742470  .$....H.T$0H.t$p
 41c0 e89bedff ff4883c4 204989c7 e928f2ff  .....H.. I...(..
 41d0 ff0fb694 248d0000 00e95aff ffff41bb  ....$.....Z...A.
 41e0 02000000 e9cbf1ff ffe802df ffff488d  ..............H.
 41f0 05502400 00c64424 42014531 ed4531ff  .P$...D$B.E1.E1.
 4200 c684248d 00000000 48c74424 50000000  ..$.....H.D$P...
 4210 00c64424 4301c644 24080048 c7442418  ..D$C..D$..H.D$.
 4220 01000000 48894424 48e910ee ffff4c89  ....H.D$H.....L.
 4230 64245031 d231c045 31edc644 244201e9  d$P1.1.E1..D$B..
 4240 e5f5ffff 89cb4531 ede990ef ffff4c89  ......E1......L.
 4250 e24c8b64 2450e927 f0ffff0f 1f440000  .L.d$P.'.....D..
 4260 41574c63 ff415649 89d64155 41545548  AWLc.AVI..AUATUH
 4270 89cd5348 83ec2848 89742408 e8cfddff  ..SH..(H.t$.....
 4280 ff488b1d f85d0000 4989c58b 00894424  .H...]..I.....D$
 4290 184585ff 0f887be0 ffff4439 3dd75d00  .E....{...D9=.].
 42a0 007f6241 81ffffff ff7f0f84 51010000  ..bA........Q...
 42b0 458d6701 488d05d5 5d000049 63f448c1  E.g.H...]..Ic.H.
 42c0 e6044839 c30f8415 01000048 89dfe87d  ..H9.......H...}
 42d0 0f000048 8905a65d 00004889 c348633d  ...H...]..H..Hc=
 42e0 945d0000 4489e231 f629fa48 c1e70448  .]..D..1.).H...H
 42f0 63d24801 df48c1e2 04e862de ffff4489  c.H..H....b...D.
 4300 25735d00 008b4504 49c1e704 4883ec08  %s]...E.I...H...
 4310 448b4500 4c01fb4c 8d7d084c 89f183c8  D.E.L..L.}.L....
 4320 014c8b1b 4c8b6308 89442424 4189c1ff  .L..L.c..D$$A...
 4330 75304c89 de4c89e7 ff752841 57488b54  u0L..L...u(AWH.T
 4340 24284c89 5c2430e8 14ecffff 4883c420  $(L.\$0.....H.. 
 4350 4c8b5c24 104939c3 7767488d 7001488d  L.\$.I9.wgH.p.H.
 4360 059b5d00 00488933 4939c474 124c89e7  ..]..H.3I9.t.L..
 4370 48897424 10e8b6dc ffff488b 74241048  H.t$......H.t$.H
 4380 89f74889 742410e8 640e0000 4883ec08  ..H.t$..d...H...
 4390 448b4500 4c89f148 89430848 89c74989  D.E.L..H.C.H..I.
 43a0 c4ff7530 ff752841 57448b4c 243c488b  ..u0.u(AWD.L$<H.
 43b0 54242848 8b742430 e8a3ebff ff4883c4  T$(H.t$0.....H..
 43c0 208b4424 18418945 004883c4 284c89e0   .D$.A.E.H..(L..
 43d0 5b5d415c 415d415e 415fc30f 1f440000  []A\A]A^A_...D..
 43e0 31ffe869 0e000066 0f6f05a1 5c000048  1..i...f.o..\..H
 43f0 89c34889 05875c00 000f1100 e9dcfeff  ..H...\.........
 4400 ffe83a10 0000662e 0f1f8400 00000000  ..:...f.........
 4410 41545553 4889fbe8 34dcffff 4885dbbe  ATUSH...4...H...
 4420 38000000 448b2048 89c5488d 05cf5d00  8...D. H..H...].
 4430 00480f44 d84889df e8b30f00 00448965  .H.D.H.......D.e
 4440 005b5d41 5cc3662e 0f1f8400 00000000  .[]A\.f.........
 4450 4885ff48 8d05a65d 0000480f 44f88b07  H..H...]..H.D...
 4460 c366662e 0f1f8400 00000000 0f1f4000  .ff...........@.
 4470 4885ff48 8d05865d 0000480f 44f88937  H..H...]..H.D..7
 4480 c366662e 0f1f8400 00000000 0f1f4000  .ff...........@.
 4490 4885ff48 8d05665d 000089f1 480f44f8  H..H..f]....H.D.
 44a0 89f083e1 1fc0e805 0fb6c048 8d7c8708  ...........H.|..
 44b0 8b3789f0 d3e831c2 83e00183 e201d3e2  .7....1.........
 44c0 31f28917 c366662e 0f1f8400 00000000  1....ff.........
 44d0 4885ff48 8d05265d 0000480f 44f88b47  H..H..&]..H.D..G
 44e0 04897704 c366662e 0f1f8400 00000000  ..w..ff.........
 44f0 4885ff48 8d05065d 0000480f 44f8c707  H..H...]..H.D...
 4500 0a000000 4885f674 0e4885d2 74094889  ....H..t.H..t.H.
 4510 77284889 5730c350 e823dbff ff0f1f00  w(H.W0.P.#......
 4520 4157488d 05d75c00 004989d7 41564989  AWH...\..I..AVI.
 4530 f6415549 89fd4154 55534c89 c34883ec  .AUI..ATUSL..H..
 4540 184d85c0 480f44d8 48894c24 08e8feda  .M..H.D.H.L$....
 4550 ffff4883 ec084c89 fa4c89f6 448b2048  ..H...L..L..D. H
 4560 89c5488d 4308448b 4b04ff73 30448b03  ..H.C.D.K..s0D..
 4570 4c89efff 73285048 8b4c2428 e8dfe9ff  L...s(PH.L$(....
 4580 ff448965 004883c4 385b5d41 5c415d41  .D.e.H..8[]A\A]A
 4590 5e415fc3 66662e0f 1f840000 00000090  ^A_.ff..........
 45a0 4157488d 05575c00 004989f7 41564989  AWH..W\..I..AVI.
 45b0 fe415541 544989d4 55534889 cb4883ec  .AUATI..USH..H..
 45c0 384885c9 480f44d8 31ede881 daffff4d  8H..H.D.1......M
 45d0 85e44c89 f94c89f2 4989c58b 00400f94  ..L..L..I....@..
 45e0 c54c8d53 084883ec 080b6b04 448b0331  .L.S.H....k.D..1
 45f0 f6894424 144189e9 31ffff73 30ff7328  ..D$.A..1..s0.s(
 4600 41524c89 542440e8 54e9ffff 488d7001  ARL.T$@.T...H.p.
 4610 48894424 484883c4 204889f7 48897424  H.D$HH.. H..H.t$
 4620 18e8ca0b 0000448b 034189e9 4c89f948  ......D..A..L..H
 4630 89442410 4883ec08 4c89f248 89c7ff73  .D$.H...L..H...s
 4640 30ff7328 4c8b5424 38415248 8b742438  0.s(L.T$8ARH.t$8
 4650 e80be9ff ff8b4424 2c4883c4 20418945  ......D$,H.. A.E
 4660 004d85e4 74094c8b 5c24284d 891c2448  .M..t.L.\$(M..$H
 4670 8b442410 4883c438 5b5d415c 415d415e  .D$.H..8[]A\A]A^
 4680 415fc366 662e0f1f 84000000 00006690  A_.ff.........f.
 4690 4889d131 d2e906ff ffff660f 1f440000  H..1......f..D..
 46a0 8b05d259 00004154 4c8b25d1 59000055  ...Y..ATL.%.Y..U
 46b0 5383f801 7e2b83e8 02498d5c 241848c1  S...~+...I.\$.H.
 46c0 e004498d 6c042866 0f1f8400 00000000  ..I.l.(f........
 46d0 488b3b48 83c310e8 54d9ffff 4839eb75  H.;H....T...H9.u
 46e0 ef498b7c 2408488d 1d135a00 004839df  .I.|$.H...Z..H9.
 46f0 7417e839 d9ffff48 891d9a59 000048c7  t..9...H...Y..H.
 4700 05875900 00000100 00488d1d 80590000  ..Y......H...Y..
 4710 4939dc74 0f4c89e7 e813d9ff ff48891d  I9.t.L.......H..
 4720 5c590000 c7054a59 00000100 00005b5d  \Y....JY......[]
 4730 415cc366 662e0f1f 84000000 00006690  A\.ff.........f.
 4740 488d0db9 5a000048 c7c2ffff ffffe90d  H...Z..H........
 4750 fbffff66 662e0f1f 84000000 00006690  ...ff.........f.
 4760 488d0d99 5a0000e9 f4faffff 0f1f4000  H...Z.........@.
 4770 4889fe48 8d0d865a 000048c7 c2ffffff  H..H...Z..H.....
 4780 ff31ffe9 d8faffff 0f1f8400 00000000  .1..............
 4790 4889f248 8d0d665a 00004889 fe31ffe9  H..H..fZ..H..1..
 47a0 bcfaffff 66662e0f 1f840000 00000090  ....ff..........
 47b0 4883ec48 4889d064 488b1425 28000000  H..HH..dH..%(...
 47c0 48895424 3831d283 fe0a0f84 4adbffff  H.T$81......J...
 47d0 89342448 89e14889 c648c7c2 ffffffff  .4$H..H..H......
 47e0 c7442404 00000000 48c74424 08000000  .D$.....H.D$....
 47f0 0048c744 24100000 000048c7 44241800  .H.D$.....H.D$..
 4800 00000048 c7442420 00000000 48c74424  ...H.D$ ....H.D$
 4810 28000000 0048c744 24300000 0000e83d  (....H.D$0.....=
 4820 faffff48 8b4c2438 6448330c 25280000  ...H.L$8dH3.%(..
 4830 00750548 83c448c3 e8b3d8ff ff0f1f00  .u.H..H.........
 4840 4883ec48 4889d048 89ca6448 8b0c2528  H..HH..H..dH..%(
 4850 00000048 894c2438 31c983fe 0a0f84bc  ...H.L$81.......
 4860 daffff89 34244889 e14889c6 c7442404  ....4$H..H...D$.
 4870 00000000 48c74424 08000000 0048c744  ....H.D$.....H.D
 4880 24100000 000048c7 44241800 00000048  $.....H.D$.....H
 4890 c7442420 00000000 48c74424 28000000  .D$ ....H.D$(...
 48a0 0048c744 24300000 0000e8b1 f9ffff48  .H.D$0.........H
 48b0 8b542438 64483314 25280000 00750548  .T$8dH3.%(...u.H
 48c0 83c448c3 e827d8ff ff0f1f80 00000000  ..H..'..........
 48d0 4889f289 fe31ffe9 d4feffff 0f1f4000  H....1........@.
 48e0 4889d148 89f289fe 31ffe951 ffffff90  H..H....1..Q....
 48f0 4883ec48 660f6f05 04590000 660f6f0d  H..Hf.o..Y..f.o.
 4900 0c590000 89d16448 8b042528 00000048  .Y....dH..%(...H
 4910 89442438 31c0488b 05135900 004989e0  .D$81.H...Y..I..
 4920 83e11f66 0f6f15f5 5800000f 29042448  ...f.o..X...).$H
 4930 89442430 89d0c0e8 050f294c 24100fb6  .D$0......)L$...
 4940 c00f2954 24204d8d 4c800841 8b1189d0  ..)T$ M.L..A....
 4950 d3e8f7d0 83e001d3 e04c89c1 31d04889  .........L..1.H.
 4960 f24889fe 31ff4189 01e8f2f8 ffff488b  .H..1.A.......H.
 4970 74243864 48333425 28000000 75054883  t$8dH34%(...u.H.
 4980 c448c3e8 68d7ffff 0f1f8400 00000000  .H..h...........
 4990 400fbed6 48c7c6ff ffffffe9 50ffffff  @...H.......P...
 49a0 ba3a0000 0048c7c6 ffffffff e93fffff  .:...H.......?..
 49b0 ff66662e 0f1f8400 00000000 0f1f4000  .ff...........@.
 49c0 ba3a0000 00e926ff ffff660f 1f440000  .:....&...f..D..
 49d0 4883ec48 64488b0c 25280000 0048894c  H..HdH..%(...H.L
 49e0 243831c9 83fe0a0f 8437d9ff ff4889d0  $81......7...H..
 49f0 89342448 ba000000 00000000 044889e1  .4$H.........H..
 4a00 48895424 084889c6 48c7c2ff ffffffc7  H.T$.H..H.......
 4a10 44240400 00000048 c7442410 00000000  D$.....H.D$.....
 4a20 48c74424 18000000 0048c744 24200000  H.D$.....H.D$ ..
 4a30 000048c7 44242800 00000048 c7442430  ..H.D$(....H.D$0
 4a40 00000000 e817f8ff ff488b54 24386448  .........H.T$8dH
 4a50 33142528 00000075 054883c4 48c3e88d  3.%(...u.H..H...
 4a60 d6ffff66 662e0f1f 84000000 00006690  ...ff.........f.
 4a70 4883ec48 4989c966 0f6f0581 57000066  H..HI..f.o..W..f
 4a80 0f6f0d89 57000066 0f6f1591 57000048  .o..W..f.o..W..H
 4a90 8b0d9a57 00006448 8b042528 00000048  ...W..dH..%(...H
 4aa0 89442438 31c00f29 04240f29 4c24100f  .D$81..).$.)L$..
 4ab0 29542420 48894c24 30c70424 0a000000  )T$ H.L$0..$....
 4ac0 4885f674 374885d2 74324889 74242848  H..t7H..t2H.t$(H
 4ad0 89e14c89 ce488954 24304c89 c2e87ef7  ..L..H.T$0L...~.
 4ae0 ffff488b 7c243864 48333c25 28000000  ..H.|$8dH3<%(...
 4af0 75054883 c448c3e8 f4d5ffff e83fd5ff  u.H..H.......?..
 4b00 ff66662e 0f1f8400 00000000 0f1f4000  .ff...........@.
 4b10 49c7c0ff ffffffe9 54ffffff 0f1f4000  I.......T.....@.
 4b20 4889d149 c7c0ffff ffff4889 f24889fe  H..I......H..H..
 4b30 31ffe939 ffffff66 0f1f8400 00000000  1..9...f........
 4b40 4989c848 89d14889 f24889fe 31ffe91d  I..H..H..H..1...
 4b50 ffffff66 662e0f1f 84000000 00006690  ...ff.........f.
 4b60 488d0dd9 540000e9 f4f6ffff 0f1f4000  H...T.........@.
 4b70 4889f248 8d0dc654 00004889 fe31ffe9  H..H...T..H..1..
 4b80 dcf6ffff 66662e0f 1f840000 00000090  ....ff..........
 4b90 488d0da9 54000048 c7c2ffff ffffe9bd  H...T..H........
 4ba0 f6ffff66 662e0f1f 84000000 00006690  ...ff.........f.
 4bb0 4889fe48 8d0d8654 000048c7 c2ffffff  H..H...T..H.....
 4bc0 ff31ffe9 98f6ffff 0f1f8400 00000000  .1..............
 4bd0 41574156 41554154 4d89cc55 4889fd53  AWAVAUATM..UH..S
 4be0 4c89c348 83ec2848 85f60f84 90000000  L..H..(H........
 4bf0 4989c949 89d04889 f131c048 8d15e620  I..I..H..1.H... 
 4c00 0000be01 000000e8 a4d6ffff 31ffba05  ............1...
 4c10 00000048 8d35e120 0000e8a1 d4ffff41  ...H.5. .......A
 4c20 b8e20700 00be0100 00004889 ef4889c1  ..........H..H..
 4c30 488d15e9 23000031 c0e872d6 ffff31ff  H...#..1..r...1.
 4c40 ba050000 00488d35 3c210000 e86fd4ff  .....H.5<!...o..
 4c50 ff4889ee 4889c7e8 24d5ffff 4983fc09  .H..H...$...I...
 4c60 0f872a03 0000488d 157b2300 004a6304  ..*...H..{#..Jc.
 4c70 a24801d0 ffe0662e 0f1f8400 00000000  .H....f.........
 4c80 4989c8be 01000000 4889d131 c0488d15  I.......H..1.H..
 4c90 60200000 e817d6ff ffe96eff ffff6690  ` ........n...f.
 4ca0 4c8b4b38 488b4310 ba050000 0031ff4c  L.K8H.C......1.L
 4cb0 8b430848 8d353e22 00004c8b 6b304c8b  .C.H.5>"..L.k0L.
 4cc0 63284c8b 7b204c89 4c24104c 8b731848  c(L.{ L.L$.L.s.H
 4cd0 8b1b4889 04244c89 442408e8 e0d3ffff  ..H..$L.D$......
 4ce0 4883ec08 4c8b4c24 184889d9 4889c248  H...L.L$.H..H..H
 4cf0 89efbe01 00000031 c0415141 55415441  .......1.AQAUATA
 4d00 5741564c 8b4c2430 4c8b4424 38e89ed5  WAVL.L$0L.D$8...
 4d10 ffff4883 c4304883 c4285b5d 415c415d  ..H..0H..([]A\A]
 4d20 415e415f c30f1f00 4c8b5340 4c8b4b38  A^A_....L.S@L.K8
 4d30 ba050000 00488d35 ec210000 488b4310  .....H.5.!..H.C.
 4d40 4c8b4308 4c8b6b30 4c8b6328 4c895424  L.C.L.k0L.c(L.T$
 4d50 184c8b7b 204c8b73 184c894c 24104889  .L.{ L.s.L.L$.H.
 4d60 0424488b 1b4c8944 240831ff e84fd3ff  .$H..L.D$.1..O..
 4d70 ff4c8b54 24184152 e967ffff ff0f1f00  .L.T$.AR.g......
 4d80 488b1bba 05000000 488d3570 1f000031  H.......H.5p...1
 4d90 ffe82ad3 ffff4883 c4284889 efbe0100  ..*...H..(H.....
 4da0 00004889 d94889c2 5b31c05d 415c415d  ..H..H..[1.]A\A]
 4db0 415e415f e9f7d4ff ff0f1f80 00000000  A^A_............
 4dc0 4c8b6308 ba050000 00488b1b 31ff488d  L.c......H..1.H.
 4dd0 353a1f00 00e8e6d2 ffff4883 c4284d89  5:........H..(M.
 4de0 e04889d9 4889c25b 4889efbe 01000000  .H..H..[H.......
 4df0 5d31c041 5c415d41 5e415fe9 b0d4ffff  ]1.A\A]A^A_.....
 4e00 4c8b6b10 4c8b6308 ba050000 0031ff48  L.k.L.c......1.H
 4e10 8b1b488d 350d1f00 00e8a2d2 ffff4883  ..H.5.........H.
 4e20 c4284d89 e94d89e0 4889d948 89c25b48  .(M..M..H..H..[H
 4e30 89efbe01 0000005d 31c0415c 415d415e  .......]1.A\A]A^
 4e40 415fe969 d4ffff66 0f1f8400 00000000  A_.i...f........
 4e50 ba050000 0031ff4c 8b73184c 8b6b1048  .....1.L.s.L.k.H
 4e60 8d35f21f 00004c8b 6308488b 1be84ed2  .5....L.c.H...N.
 4e70 ffff4883 ec084156 4889c24d 89e94d89  ..H...AVH..M..M.
 4e80 e04889d9 4889efbe 01000000 31c0e81d  .H..H.......1...
 4e90 d4ffff58 5a4883c4 285b5d41 5c415d41  ...XZH..([]A\A]A
 4ea0 5e415fc3 0f1f4000 4c8b7b20 ba050000  ^A_...@.L.{ ....
 4eb0 0031ff4c 8b731848 8d35ba1f 00004c8b  .1.L.s.H.5....L.
 4ec0 6b104c8b 6308488b 1be8f2d1 ffff4157  k.L.c.H.......AW
 4ed0 eba4660f 1f440000 4c8b4308 4c8b6328  ..f..D..L.C.L.c(
 4ee0 ba050000 0031ff4c 8b7b204c 8b731848  .....1.L.{ L.s.H
 4ef0 8d35aa1f 00004c89 04244c8b 6b10488b  .5....L..$L.k.H.
 4f00 1be8bad1 ffff4883 ec084d89 e9415441  ......H...M..ATA
 4f10 5741564c 8b442420 4889d948 89c24889  WAVL.D$ H..H..H.
 4f20 efbe0100 000031c0 e883d3ff ff4883c4  ......1......H..
 4f30 204883c4 285b5d41 5c415d41 5e415fc3   H..([]A\A]A^A_.
 4f40 4c8b4b10 4c8b6b30 ba050000 0031ff4c  L.K.L.k0.....1.L
 4f50 8b63284c 8b7b2048 8d356a1f 00004c8b  .c(L.{ H.5j...L.
 4f60 73184c8b 43084c89 4c240848 8b1b4c89  s.L.C.L.L$.H..L.
 4f70 0424e849 d1ffff41 55415441 5741564c  .$.I...AUATAWAVL
 4f80 8b4c2428 eb8d662e 0f1f8400 00000000  .L$(..f.........
 4f90 4c8b5340 4c8b4b38 ba050000 00488d35  L.S@L.K8.....H.5
 4fa0 bc1f0000 488b4310 4c8b4308 4c8b6b30  ....H.C.L.C.L.k0
 4fb0 4c8b6328 4c895424 184c8b7b 204c8b73  L.c(L.T$.L.{ L.s
 4fc0 184c894c 24104889 0424488b 1b4c8944  .L.L$.H..$H..L.D
 4fd0 2408e993 fdffff66 0f1f8400 00000000  $......f........
 4fe0 4531c949 83380074 120f1f80 00000000  E1.I.8.t........
 4ff0 4983c101 4b833cc8 0075f5e9 d0fbffff  I...K.<..u......
 5000 4883ec68 4531c964 488b0425 28000000  H..hE1.dH..%(...
 5010 48894424 5831c049 89e3eb27 0f1f4000  H.D$X1.I...'..@.
 5020 4189c283 c0084d03 50104189 00498b02  A.....M.P.A..I..
 5030 4b8904cb 4885c074 2f4983c1 014983f9  K...H..t/I...I..
 5040 0a742541 8b0083f8 2f76d54d 8b500849  .t%A..../v.M.P.I
 5050 8d420849 89400849 8b024b89 04cb4885  .B.I.@.I..K...H.
 5060 c075d60f 1f440000 4d89d8e8 60fbffff  .u...D..M...`...
 5070 488b4424 58644833 04252800 00007505  H.D$XdH3.%(...u.
 5080 4883c468 c3e866d0 ffff660f 1f440000  H..h..f...f..D..
 5090 5541ba20 00000053 31db4881 ecb80000  UA. ...S1.H.....
 50a0 004c8984 24a00000 004c8d9c 24d00000  .L..$....L..$...
 50b0 004c8d44 24204c89 8c24a800 00004531  .L.D$ L..$....E1
 50c0 c964488b 04252800 00004889 44247831  .dH..%(...H.D$x1
 50d0 c0488d84 24d00000 00c74424 08200000  .H..$.....D$. ..
 50e0 00488944 2410488d 84248000 00004889  .H.D$.H..$....H.
 50f0 44241848 89c5eb2d 0f1f8400 00000000  D$.H...-........
 5100 4489d0bb 01000000 4183c208 4801e848  D.......A...H..H
 5110 8b004b89 04c84885 c0742549 83c10149  ..K...H..t%I...I
 5120 83f90a74 1b4183fa 2f76d54c 89d84983  ...t.A../v.L..I.
 5130 c308488b 004b8904 c84885c0 75dd6690  ..H..K...H..u.f.
 5140 84db7405 44895424 08e882fa ffff488b  ..t.D.T$......H.
 5150 44247864 48330425 28000000 750a4881  D$xdH3.%(...u.H.
 5160 c4b80000 005b5dc3 e883cfff ff0f1f00  .....[].........
 5170 53ba0500 0000488d 35c51b00 0031ffe8  S.....H.5....1..
 5180 3ccfffff 488d15cc 1b0000bf 01000000  <...H...........
 5190 4889c631 c0e8a6d0 ffffba05 00000048  H..1...........H
 51a0 8d35c71b 000031ff e813cfff ff488d0d  .5....1......H..
 51b0 5c130000 bf010000 00488d15 fa0e0000  \........H......
 51c0 4889c631 c0e876d0 ffff488b 1dd74e00  H..1..v...H...N.
 51d0 0031ff48 8d35c61d 0000ba05 000000e8  .1.H.5..........
 51e0 dcceffff 4889de5b 4889c7e9 90cfffff  ....H..[H.......
 51f0 534889fb e8e7cfff ff4885c0 75054885  SH.......H..u.H.
 5200 db75025b c3e83602 0000660f 1f440000  .u.[..6...f..D..
 5210 4889f848 f7e64889 c70f90c0 4885ff78  H..H..H.....H..x
 5220 0a0fb6c0 4885c075 02ebc550 e80f0200  ....H..u...P....
 5230 0066662e 0f1f8400 00000000 0f1f4000  .ff...........@.
 5240 ebae6666 2e0f1f84 00000000 000f1f00  ..ff............
 5250 534889f3 4885f675 054885ff 751a4889  SH..H..u.H..u.H.
 5260 dee8bacf ffff4885 c0750548 85db7511  ......H..u.H..u.
 5270 5bc3660f 1f440000 e8b3cdff ff31c05b  [.f..D.......1.[
 5280 c3e8ba01 0000662e 0f1f8400 00000000  ......f.........
 5290 4889f048 f7e24889 c60f90c0 4885f678  H..H..H.....H..x
 52a0 0a0fb6c0 4885c075 02eba550 e88f0100  ....H..u...P....
 52b0 0066662e 0f1f8400 00000000 0f1f4000  .ff...........@.
 52c0 4989d148 8b0e4885 ff743548 b8545555  I..H..H..t5H.TUU
 52d0 55555555 5531d249 f7f14839 c8763c48  UUUUU1.I..H9.v<H
 52e0 89c848d1 e8488d4c 08014889 0e490faf  ..H..H.L..H..I..
 52f0 c94889ce e957ffff ff0f1f80 00000000  .H...W..........
 5300 4885c974 234889c8 49f7e10f 90c20fb6  H..t#H..I.......
 5310 d24885c0 78054885 d274cf50 e81f0100  .H..x.H..t.P....
 5320 000f1f80 00000000 31d2b880 00000045  ........1......E
 5330 31c049f7 f14981f9 80000000 410f97c0  1.I..I......A...
 5340 498d0c00 ebbf662e 0f1f8400 00000000  I.....f.........
 5350 488b0648 85ff7428 48ba5355 55555555  H..H..t(H.SUUUUU
 5360 55554839 d0773348 89c248d1 ea488d44  UUH9.w3H..H..H.D
 5370 02014889 064889c6 e9d3feff ff0f1f00  ..H..H..........
 5380 4885c075 13b88000 00004889 064889c6  H..u......H..H..
 5390 e9bbfeff ff0f1f00 79d850e8 a0000000  ........y.P.....
 53a0 534889fb e847feff ff4889da 31f65b48  SH...G...H..1.[H
 53b0 89c7e9a9 cdffff66 0f1f8400 00000000  .......f........
 53c0 4889f848 83ec0848 f7e60f90 c24885c0  H..H...H.....H..
 53d0 78170fb6 d24885d2 750fe8b1 cdffff48  x....H..u......H
 53e0 85c07405 4883c408 c3e85200 00006690  ..t.H.....R...f.
 53f0 554889fd 4889f753 4889f348 83ec08e8  UH..H..SH..H....
 5400 ecfdffff 4883c408 4889da48 89ee5b48  ....H...H..H..[H
 5410 89c75de9 98cdffff 0f1f8400 00000000  ..].............
 5420 534889fb e8b7ccff ff4889df 5b488d70  SH.......H..[H.p
 5430 01ebbd66 2e0f1f84 00000000 000f1f00  ...f............
 5440 4883ec08 ba050000 00488d35 ff1b0000  H........H.5....
 5450 31ffe869 ccffff8b 3dc34b00 00488d15  1..i....=.K..H..
 5460 84110000 31f64889 c131c0e8 e0cdffff  ....1.H..1......
 5470 e8cbcbff ff662e0f 1f840000 00000090  .....f..........
 5480 41545553 4889fbe8 34cdffff 4889df85  ATUSH...4...H...
 5490 c07854e8 78cdffff 85c0752c 4889dfe8  .xT.x.....u,H...
 54a0 5c000000 85c0743c e8a3cbff ff4889df  \.....t<.....H..
 54b0 448b2048 89c5e8e5 cbffff45 85e47530  D. H.......E..u0
 54c0 5b5d415c c30f1f00 4889dfe8 f0ccffff  []A\....H.......
 54d0 31f6ba01 00000089 c7e872cc ffff4883  1.........r...H.
 54e0 f8ff75b8 4889df5b 5d415ce9 b0cbffff  ..u.H..[]A\.....
 54f0 44896500 b8ffffff ffebc50f 1f440000  D.e..........D..
 5500 534889fb 4885ff74 11e802cd ffff85c0  SH..H..t........
 5510 7408f703 00010000 750e4889 df5be9cd  t.......u.H..[..
 5520 ccffff0f 1f440000 4889dfba 01000000  .....D..H.......
 5530 31f6e809 00000048 89df5be9 b0ccffff  1......H..[.....
 5540 488b4708 48394710 7406e911 cdffff90  H.G.H9G.t.......
 5550 488b4720 48394728 75f04883 7f480075  H.G H9G(u.H..H.u
 5560 e9415441 89d45548 89f55348 89fbe84d  .ATA..UH..SH...M
 5570 ccffff44 89e24889 ee89c7e8 d0cbffff  ...D..H.........
 5580 4883f8ff 740c8323 ef488983 90000000  H...t..#.H......
 5590 31c05b5d 415cc366 0f1f8400 00000000  1.[]A\.f........
 55a0 41554989 f5415449 89d45553 4889fb48  AUI..ATI..USH..H
 55b0 83ec1864 488b0425 28000000 48894424  ...dH..%(...H.D$
 55c0 0831c048 85ff488d 44240448 0f44d848  .1.H..H.D$.H.D.H
 55d0 89dfe839 cbffff48 89c54883 f8fd7605  ...9...H..H...v.
 55e0 4d85e475 23488b54 24086448 33142528  M..u#H.T$.dH3.%(
 55f0 00000048 89e87529 4883c418 5b5d415c  ...H..u)H...[]A\
 5600 415dc30f 1f440000 31ffe881 00000084  A]...D..1.......
 5610 c075d241 0fb64500 bd010000 008903eb  .u.A..E.........
 5620 c4e8caca ffff662e 0f1f8400 00000000  ......f.........
 5630 41545548 89fd53e8 44caffff 8b5d0048  ATUH..S.D....].H
 5640 89ef4989 c483e320 e833feff ff85db75  ..I.... .3.....u
 5650 1f85c074 154d85e4 752ce8f1 c9ffff83  ...t.M..u,......
 5660 38090f95 c00fb6c0 f7d85b5d 415cc390  8.........[]A\..
 5670 85c07512 e8d7c9ff ffc70000 000000b8  ..u.............
 5680 ffffffff ebe4b8ff ffffffeb dd0f1f00  ................
 5690 4883ec08 31f6e895 cbffff48 89c2b801  H...1......H....
 56a0 00000048 85d2741d b9020000 00488d3d  ...H..t......H.=
 56b0 ac190000 4889d6f3 a60f97c1 80d90031  ....H..........1
 56c0 c084c975 0b4883c4 08c3660f 1f440000  ...u.H....f..D..
 56d0 b9060000 00488d3d 86190000 4889d6f3  .....H.=....H...
 56e0 a60f97c0 1c0084c0 0f95c048 83c408c3  ...........H....
 56f0 4883ec08 bf0e0000 00e802cb ffff4885  H.............H.
 5700 c0741d80 3800488d 155b1900 00480f44  .t..8.H..[...H.D
 5710 c24883c4 08c3662e 0f1f8400 00000000  .H....f.........
 5720 488d0541 19000048 83c408c3 0f1f4000  H..A...H......@.
 5730 41574989 d7415649 89f64155 4189fd41  AWI..AVI..AUA..A
 5740 544c8d25 88420000 55488d2d 88420000  TL.%.B..UH.-.B..
 5750 534c29e5 4883ec08 e8a3c8ff ff48c1fd  SL).H........H..
 5760 03741b31 db0f1f00 4c89fa4c 89f64489  .t.1....L..L..D.
 5770 ef41ff14 dc4883c3 014839dd 75ea4883  .A...H...H9.u.H.
 5780 c4085b5d 415c415d 415e415f c30f1f00  ..[]A\A]A^A_....
 5790 c3662e0f 1f840000 0000000f 1f440000  .f...........D..
 57a0 488b1561 48000031 f6e9d2ca ffff      H..aH..1......  
Contents of section .fini:
 57b0 4883ec08 4883c408 c3                 H...H....       
Contents of section .rodata:
 6000 01000200 756e616d 65006172 6368005b  ....uname.arch.[
 6010 00557361 67653a20 2573205b 4f505449  .Usage: %s [OPTI
 6020 4f4e5d2e 2e2e0a00 5072696e 74206d61  ON].....Print ma
 6030 6368696e 65206172 63686974 65637475  chine architectu
 6040 72652e0a 0a007465 73742069 6e766f63  re....test invoc
 6050 6174696f 6e004d75 6c74692d 63616c6c  ation.Multi-call
 6060 20696e76 6f636174 696f6e00 73686132   invocation.sha2
 6070 32347375 6d007368 61322075 74696c69  24sum.sha2 utili
 6080 74696573 00736861 32353673 756d0073  ties.sha256sum.s
 6090 68613338 3473756d 00736861 35313273  ha384sum.sha512s
 60a0 756d000a 2573206f 6e6c696e 65206865  um..%s online he
 60b0 6c703a20 3c25733e 0a00474e 5520636f  lp: <%s>..GNU co
 60c0 72657574 696c7300 656e5f00 6174686c  reutils.en_.athl
 60d0 6f6e002f 7573722f 73686172 652f6c6f  on./usr/share/lo
 60e0 63616c65 004b6172 656c205a 616b0044  cale.Karel Zak.D
 60f0 61766964 204d6163 4b656e7a 69650061  avid MacKenzie.a
 6100 736e7276 6d70696f 00657874 7261206f  snrvmpio.extra o
 6110 70657261 6e642025 73006361 6e6e6f74  perand %s.cannot
 6120 20676574 20737973 74656d20 6e616d65   get system name
 6130 00693638 36002f70 726f632f 63707569  .i686./proc/cpui
 6140 6e666f00 76656e64 6f725f69 64004175  nfo.vendor_id.Au
 6150 7468656e 74696341 4d440047 4e552f4c  thenticAMD.GNU/L
 6160 696e7578 0068656c 7000616c 6c006b65  inux.help.all.ke
 6170 726e656c 2d6e616d 65007379 736e616d  rnel-name.sysnam
 6180 65006e6f 64656e61 6d65006b 65726e65  e.nodename.kerne
 6190 6c2d7265 6c656173 65006b65 726e656c  l-release.kernel
 61a0 2d766572 73696f6e 006d6163 68696e65  -version.machine
 61b0 0070726f 63657373 6f720068 61726477  .processor.hardw
 61c0 6172652d 706c6174 666f726d 006f7065  are-platform.ope
 61d0 72617469 6e672d73 79737465 6d000000  rating-system...
 61e0 54727920 27257320 2d2d6865 6c702720  Try '%s --help' 
 61f0 666f7220 6d6f7265 20696e66 6f726d61  for more informa
 6200 74696f6e 2e0a0000 5072696e 74206365  tion....Print ce
 6210 72746169 6e207379 7374656d 20696e66  rtain system inf
 6220 6f726d61 74696f6e 2e202057 69746820  ormation.  With 
 6230 6e6f204f 5054494f 4e2c2073 616d6520  no OPTION, same 
 6240 6173202d 732e0a0a 20202d61 2c202d2d  as -s...  -a, --
 6250 616c6c20 20202020 20202020 20202020  all             
 6260 20202070 72696e74 20616c6c 20696e66     print all inf
 6270 6f726d61 74696f6e 2c20696e 20746865  ormation, in the
 6280 20666f6c 6c6f7769 6e67206f 72646572   following order
 6290 2c0a2020 20202020 20202020 20202020  ,.              
 62a0 20202020 20202020 20202020 20202065                 e
 62b0 78636570 74206f6d 6974202d 7020616e  xcept omit -p an
 62c0 64202d69 20696620 756e6b6e 6f776e3a  d -i if unknown:
 62d0 0a20202d 732c202d 2d6b6572 6e656c2d  .  -s, --kernel-
 62e0 6e616d65 20202020 20202020 7072696e  name        prin
 62f0 74207468 65206b65 726e656c 206e616d  t the kernel nam
 6300 650a2020 2d6e2c20 2d2d6e6f 64656e61  e.  -n, --nodena
 6310 6d652020 20202020 20202020 20707269  me           pri
 6320 6e742074 6865206e 6574776f 726b206e  nt the network n
 6330 6f646520 686f7374 6e616d65 0a20202d  ode hostname.  -
 6340 722c202d 2d6b6572 6e656c2d 72656c65  r, --kernel-rele
 6350 61736520 20202020 7072696e 74207468  ase     print th
 6360 65206b65 726e656c 2072656c 65617365  e kernel release
 6370 0a000000 00000000 20202d76 2c202d2d  ........  -v, --
 6380 6b65726e 656c2d76 65727369 6f6e2020  kernel-version  
 6390 20202070 72696e74 20746865 206b6572     print the ker
 63a0 6e656c20 76657273 696f6e0a 20202d6d  nel version.  -m
 63b0 2c202d2d 6d616368 696e6520 20202020  , --machine     
 63c0 20202020 20202070 72696e74 20746865         print the
 63d0 206d6163 68696e65 20686172 64776172   machine hardwar
 63e0 65206e61 6d650a20 202d702c 202d2d70  e name.  -p, --p
 63f0 726f6365 73736f72 20202020 20202020  rocessor        
 6400 20207072 696e7420 74686520 70726f63    print the proc
 6410 6573736f 72207479 70652028 6e6f6e2d  essor type (non-
 6420 706f7274 61626c65 290a2020 2d692c20  portable).  -i, 
 6430 2d2d6861 72647761 72652d70 6c617466  --hardware-platf
 6440 6f726d20 20707269 6e742074 68652068  orm  print the h
 6450 61726477 61726520 706c6174 666f726d  ardware platform
 6460 20286e6f 6e2d706f 72746162 6c65290a   (non-portable).
 6470 20202d6f 2c202d2d 6f706572 6174696e    -o, --operatin
 6480 672d7379 7374656d 20202070 72696e74  g-system   print
 6490 20746865 206f7065 72617469 6e672073   the operating s
 64a0 79737465 6d0a0000 20202020 20202d2d  ystem...      --
 64b0 68656c70 20202020 20646973 706c6179  help     display
 64c0 20746869 73206865 6c702061 6e642065   this help and e
 64d0 7869740a 00000000 20202020 20202d2d  xit.....      --
 64e0 76657273 696f6e20 206f7574 70757420  version  output 
 64f0 76657273 696f6e20 696e666f 726d6174  version informat
 6500 696f6e20 616e6420 65786974 0a000000  ion and exit....
 6510 68747470 733a2f2f 7777772e 676e752e  https://www.gnu.
 6520 6f72672f 736f6674 77617265 2f636f72  org/software/cor
 6530 65757469 6c732f00 5265706f 72742025  eutils/.Report %
 6540 73207472 616e736c 6174696f 6e206275  s translation bu
 6550 67732074 6f203c68 74747073 3a2f2f74  gs to <https://t
 6560 72616e73 6c617469 6f6e7072 6f6a6563  ranslationprojec
 6570 742e6f72 672f7465 616d2f3e 0a000000  t.org/team/>....
 6580 46756c6c 20646f63 756d656e 74617469  Full documentati
 6590 6f6e2061 743a203c 25732573 3e0a0000  on at: <%s%s>...
 65a0 6f722061 7661696c 61626c65 206c6f63  or available loc
 65b0 616c6c79 20766961 3a20696e 666f2027  ally via: info '
 65c0 28636f72 65757469 6c732920 25732573  (coreutils) %s%s
 65d0 270a0038 2e333000 77726974 65206572  '..8.30.write er
 65e0 726f7200 25733a20 25730000 00000000  ror.%s: %s......
 65f0 41204e55 4c4c2061 7267765b 305d2077  A NULL argv[0] w
 6600 61732070 61737365 64207468 726f7567  as passed throug
 6610 6820616e 20657865 63207379 7374656d  h an exec system
 6620 2063616c 6c2e0a00 2f2e6c69 62732f00   call.../.libs/.
 6630 6c742d00 2200e280 9900a1af 00a10765  lt-."..........e
 6640 00e28098 00270060 006c6974 6572616c  .....'.`.literal
 6650 00736865 6c6c0073 68656c6c 2d616c77  .shell.shell-alw
 6660 61797300 7368656c 6c2d6573 63617065  ays.shell-escape
 6670 00736865 6c6c2d65 73636170 652d616c  .shell-escape-al
 6680 77617973 00630063 2d6d6179 62650063  ways.c.c-maybe.c
 6690 6c6f6361 6c650000 00000000 00000000  locale..........
 66a0 55d7ffff 5dc9ffff 18d8ffff 92d7ffff  U...]...........
 66b0 94d5ffff eed5ffff d2d6ffff 18d7ffff  ................
 66c0 46d6ffff 46d6ffff 46d6ffff d4cdffff  F...F...F.......
 66d0 81ceffff 81ceffff 81ceffff 81ceffff  ................
 66e0 81ceffff 81ceffff a7d7ffff 98d7ffff  ................
 66f0 5ccdffff c4ccffff b4cdffff 9ccdffff  \...............
 6700 81cdffff 81ceffff 81ceffff 81ceffff  ................
 6710 81ceffff 81ceffff 81ceffff 81ceffff  ................
 6720 81ceffff 81ceffff 81ceffff 81ceffff  ................
 6730 81ceffff 81ceffff 81ceffff 81ceffff  ................
 6740 81ceffff 81ceffff 81ceffff 8ed7ffff  ................
 6750 71cdffff 71cdffff bbd7ffff 71cdffff  q...q.......q...
 6760 b1d7ffff 71cdffff 59ccffff 71cdffff  ....q...Y...q...
 6770 71cdffff 71cdffff b1d7ffff b1d7ffff  q...q...........
 6780 b1d7ffff b1d7ffff b1d7ffff b1d7ffff  ................
 6790 b1d7ffff b1d7ffff b1d7ffff b1d7ffff  ................
 67a0 b1d7ffff b1d7ffff b1d7ffff b1d7ffff  ................
 67b0 b1d7ffff b1d7ffff 71cdffff 71cdffff  ........q...q...
 67c0 71cdffff 71cdffff 29ccffff 81ceffff  q...q...).......
 67d0 b1d7ffff b1d7ffff b1d7ffff b1d7ffff  ................
 67e0 b1d7ffff b1d7ffff b1d7ffff b1d7ffff  ................
 67f0 b1d7ffff b1d7ffff b1d7ffff b1d7ffff  ................
 6800 b1d7ffff b1d7ffff b1d7ffff b1d7ffff  ................
 6810 b1d7ffff b1d7ffff b1d7ffff b1d7ffff  ................
 6820 b1d7ffff b1d7ffff b1d7ffff b1d7ffff  ................
 6830 b1d7ffff b1d7ffff 71cdffff 81ccffff  ........q.......
 6840 b1d7ffff 71cdffff b1d7ffff 71cdffff  ....q.......q...
 6850 b1d7ffff b1d7ffff b1d7ffff b1d7ffff  ................
 6860 b1d7ffff b1d7ffff b1d7ffff b1d7ffff  ................
 6870 b1d7ffff b1d7ffff b1d7ffff b1d7ffff  ................
 6880 b1d7ffff b1d7ffff b1d7ffff b1d7ffff  ................
 6890 b1d7ffff b1d7ffff b1d7ffff b1d7ffff  ................
 68a0 b1d7ffff b1d7ffff b1d7ffff b1d7ffff  ................
 68b0 b1d7ffff b1d7ffff 89caffff 71cdffff  ............q...
 68c0 89caffff bbd7ffff 88cdffff 85ccffff  ................
 68d0 85ccffff 85ccffff 85ccffff 85ccffff  ................
 68e0 85ccffff 68cdffff 48cdffff 38cdffff  ....h...H...8...
 68f0 08cdffff 58ceffff 38ceffff 20ceffff  ....X...8... ...
 6900 85ccffff 85ccffff 85ccffff 85ccffff  ................
 6910 85ccffff 85ccffff 85ccffff 85ccffff  ................
 6920 85ccffff 85ccffff 85ccffff 85ccffff  ................
 6930 85ccffff 85ccffff 85ccffff 85ccffff  ................
 6940 85ccffff 85ccffff 08ceffff f8cdffff  ................
 6950 f8cdffff e8cdffff f8cdffff dbccffff  ................
 6960 f8cdffff 5dcaffff f8cdffff f8cdffff  ....]...........
 6970 f8cdffff dbccffff dbccffff dbccffff  ................
 6980 dbccffff dbccffff dbccffff dbccffff  ................
 6990 dbccffff dbccffff dbccffff dbccffff  ................
 69a0 dbccffff dbccffff dbccffff dbccffff  ................
 69b0 dbccffff f8cdffff f8cdffff f8cdffff  ................
 69c0 f8cdffff 2dcaffff 85ccffff dbccffff  ....-...........
 69d0 dbccffff dbccffff dbccffff dbccffff  ................
 69e0 dbccffff dbccffff dbccffff dbccffff  ................
 69f0 dbccffff dbccffff dbccffff dbccffff  ................
 6a00 dbccffff dbccffff dbccffff dbccffff  ................
 6a10 dbccffff dbccffff dbccffff dbccffff  ................
 6a20 dbccffff dbccffff dbccffff dbccffff  ................
 6a30 dbccffff f8cdffff b8cdffff dbccffff  ................
 6a40 f8cdffff dbccffff f8cdffff dbccffff  ................
 6a50 dbccffff dbccffff dbccffff dbccffff  ................
 6a60 dbccffff dbccffff dbccffff dbccffff  ................
 6a70 dbccffff dbccffff dbccffff dbccffff  ................
 6a80 dbccffff dbccffff dbccffff dbccffff  ................
 6a90 dbccffff dbccffff dbccffff dbccffff  ................
 6aa0 dbccffff dbccffff dbccffff dbccffff  ................
 6ab0 dbccffff 8dc8ffff f8cdffff 8dc8ffff  ................
 6ac0 e8cdffff ccc9ffff 84caffff 84caffff  ................
 6ad0 84caffff 84caffff 84caffff 84caffff  ................
 6ae0 f4ccffff e4ccffff 64c9ffff ccc8ffff  ........d.......
 6af0 bcc9ffff a4c9ffff 84c9ffff 84caffff  ................
 6b00 84caffff 84caffff 84caffff 84caffff  ................
 6b10 84caffff 84caffff 84caffff 84caffff  ................
 6b20 84caffff 84caffff 84caffff 84caffff  ................
 6b30 84caffff 84caffff 84caffff 84caffff  ................
 6b40 84caffff d4ccffff 74c9ffff 74c9ffff  ........t...t...
 6b50 b4ccffff 74c9ffff 9cccffff 74c9ffff  ....t.......t...
 6b60 5cc8ffff 74c9ffff 74c9ffff 74c9ffff  \...t...t...t...
 6b70 9cccffff 9cccffff 9cccffff 9cccffff  ................
 6b80 9cccffff 9cccffff 9cccffff 9cccffff  ................
 6b90 9cccffff 9cccffff 9cccffff 9cccffff  ................
 6ba0 9cccffff 9cccffff 9cccffff 9cccffff  ................
 6bb0 74c9ffff 74c9ffff 74c9ffff 74c9ffff  t...t...t...t...
 6bc0 2cc8ffff 84caffff 9cccffff 9cccffff  ,...............
 6bd0 9cccffff 9cccffff 9cccffff 9cccffff  ................
 6be0 9cccffff 9cccffff 9cccffff 9cccffff  ................
 6bf0 9cccffff 9cccffff 9cccffff 9cccffff  ................
 6c00 9cccffff 9cccffff 9cccffff 9cccffff  ................
 6c10 9cccffff 9cccffff 9cccffff 9cccffff  ................
 6c20 9cccffff 9cccffff 9cccffff 9cccffff  ................
 6c30 74c9ffff 84c8ffff 9cccffff 74c9ffff  t...........t...
 6c40 9cccffff 74c9ffff 9cccffff 9cccffff  ....t...........
 6c50 9cccffff 9cccffff 9cccffff 9cccffff  ................
 6c60 9cccffff 9cccffff 9cccffff 9cccffff  ................
 6c70 9cccffff 9cccffff 9cccffff 9cccffff  ................
 6c80 9cccffff 9cccffff 9cccffff 9cccffff  ................
 6c90 9cccffff 9cccffff 9cccffff 9cccffff  ................
 6ca0 9cccffff 9cccffff 9cccffff 9cccffff  ................
 6cb0 8cc6ffff 74c9ffff 8cc6ffff b4ccffff  ....t...........
 6cc0 00000000 01000000 02000000 03000000  ................
 6cd0 04000000 05000000 06000000 07000000  ................
 6ce0 08000000 09000000 25732028 25732920  ........%s (%s) 
 6cf0 25730a00 25732025 730a0028 43290057  %s..%s %s..(C).W
 6d00 72697474 656e2062 79202573 2e0a0057  ritten by %s...W
 6d10 72697474 656e2062 79202573 20616e64  ritten by %s and
 6d20 2025732e 0a005772 69747465 6e206279   %s...Written by
 6d30 2025732c 2025732c 20616e64 2025732e   %s, %s, and %s.
 6d40 0a000a52 65706f72 74206275 67732074  ...Report bugs t
 6d50 6f3a2025 730a0062 75672d63 6f726575  o: %s..bug-coreu
 6d60 74696c73 40676e75 2e6f7267 00257320  tils@gnu.org.%s 
 6d70 686f6d65 20706167 653a203c 25733e0a  home page: <%s>.
 6d80 00000000 00000000 0a4c6963 656e7365  .........License
 6d90 2047504c 76332b3a 20474e55 2047504c   GPLv3+: GNU GPL
 6da0 20766572 73696f6e 2033206f 72206c61   version 3 or la
 6db0 74657220 3c687474 70733a2f 2f676e75  ter <https://gnu
 6dc0 2e6f7267 2f6c6963 656e7365 732f6770  .org/licenses/gp
 6dd0 6c2e6874 6d6c3e2e 0a546869 73206973  l.html>..This is
 6de0 20667265 6520736f 66747761 72653a20   free software: 
 6df0 796f7520 61726520 66726565 20746f20  you are free to 
 6e00 6368616e 67652061 6e642072 65646973  change and redis
 6e10 74726962 75746520 69742e0a 54686572  tribute it..Ther
 6e20 65206973 204e4f20 57415252 414e5459  e is NO WARRANTY
 6e30 2c20746f 20746865 20657874 656e7420  , to the extent 
 6e40 7065726d 69747465 64206279 206c6177  permitted by law
 6e50 2e0a0a00 00000000 57726974 74656e20  ........Written 
 6e60 62792025 732c2025 732c2025 732c0a61  by %s, %s, %s,.a
 6e70 6e642025 732e0a00 57726974 74656e20  nd %s...Written 
 6e80 62792025 732c2025 732c2025 732c0a25  by %s, %s, %s,.%
 6e90 732c2061 6e642025 732e0a00 00000000  s, and %s.......
 6ea0 57726974 74656e20 62792025 732c2025  Written by %s, %
 6eb0 732c2025 732c0a25 732c2025 732c2061  s, %s,.%s, %s, a
 6ec0 6e642025 732e0a00 57726974 74656e20  nd %s...Written 
 6ed0 62792025 732c2025 732c2025 732c0a25  by %s, %s, %s,.%
 6ee0 732c2025 732c2025 732c2061 6e642025  s, %s, %s, and %
 6ef0 732e0a00 00000000 57726974 74656e20  s.......Written 
 6f00 62792025 732c2025 732c2025 732c0a25  by %s, %s, %s,.%
 6f10 732c2025 732c2025 732c2025 732c0a61  s, %s, %s, %s,.a
 6f20 6e642025 732e0a00 57726974 74656e20  nd %s...Written 
 6f30 62792025 732c2025 732c2025 732c0a25  by %s, %s, %s,.%
 6f40 732c2025 732c2025 732c2025 732c0a25  s, %s, %s, %s,.%
 6f50 732c2061 6e642025 732e0a00 00000000  s, and %s.......
 6f60 57726974 74656e20 62792025 732c2025  Written by %s, %
 6f70 732c2025 732c0a25 732c2025 732c2025  s, %s,.%s, %s, %
 6f80 732c2025 732c0a25 732c2025 732c2061  s, %s,.%s, %s, a
 6f90 6e64206f 74686572 732e0a00 00000000  nd others.......
 6fa0 47656e65 72616c20 68656c70 20757369  General help usi
 6fb0 6e672047 4e552073 6f667477 6172653a  ng GNU software:
 6fc0 203c6874 7470733a 2f2f7777 772e676e   <https://www.gn
 6fd0 752e6f72 672f6765 7468656c 702f3e0a  u.org/gethelp/>.
 6fe0 00000000 00000000 41b3ffff 98ddffff  ........A.......
 6ff0 d8ddffff 18deffff 68deffff c0deffff  ........h.......
 7000 f0deffff 58dfffff b8dcffff 40ddffff  ....X.......@...
 7010 00000000 00000000 00000000 00000000  ................
 7020 436f7079 72696768 74202573 20256420  Copyright %s %d 
 7030 46726565 20536f66 74776172 6520466f  Free Software Fo
 7040 756e6461 74696f6e 2c20496e 632e006d  undation, Inc..m
 7050 656d6f72 79206578 68617573 74656400  emory exhausted.
 7060 4300504f 53495800 41534349 4900      C.POSIX.ASCII.  
Contents of section .eh_frame_hdr:
 7070 011b033b 74020000 4d000000 b0afffff  ...;t...M.......
 7080 c0020000 90b2ffff e8020000 a0b2ffff  ................
 7090 f4040000 a5b2ffff 98050000 aab2ffff  ................
 70a0 c0070000 afb2ffff f0070000 b4b2ffff  ................
 70b0 a0080000 b9b2ffff 740a0000 c0b2ffff  ........t.......
 70c0 40030000 b0b7ffff 90020000 a0b8ffff  @...............
 70d0 00030000 f0b8ffff 1c030000 70bcffff  ............p...
 70e0 a0030000 80bcffff b4030000 90bcffff  ................
 70f0 c8030000 40bdffff f8030000 e0bdffff  ....@...........
 7100 18040000 f0beffff 54040000 f0d1ffff  ........T.......
 7110 08050000 a0d3ffff ac050000 e0d3ffff  ................
 7120 d8050000 00d4ffff ec050000 20d4ffff  ............ ...
 7130 00060000 60d4ffff 14060000 80d4ffff  ....`...........
 7140 28060000 b0d4ffff 3c060000 30d5ffff  (.......<...0...
 7150 90060000 20d6ffff fc060000 30d6ffff  .... .......0...
 7160 10070000 d0d6ffff 3c070000 f0d6ffff  ........<.......
 7170 50070000 00d7ffff 64070000 20d7ffff  P.......d... ...
 7180 78070000 40d7ffff 8c070000 d0d7ffff  x...@...........
 7190 d4070000 60d8ffff 04080000 70d8ffff  ....`.......p...
 71a0 18080000 80d8ffff 2c080000 20d9ffff  ........,... ...
 71b0 48080000 30d9ffff 5c080000 50d9ffff  H...0...\...P...
 71c0 70080000 60d9ffff 84080000 00daffff  p...`...........
 71d0 b4080000 a0daffff d0080000 b0daffff  ................
 71e0 e4080000 d0daffff f8080000 f0daffff  ................
 71f0 0c090000 00dbffff 20090000 20dbffff  ........ ... ...
 7200 34090000 40dbffff 48090000 60dbffff  4...@...H...`...
 7210 60090000 70dfffff 880a0000 90dfffff  `...p...........
 7220 9c0a0000 20e0ffff b80a0000 00e1ffff  .... ...........
 7230 e40a0000 80e1ffff 000b0000 a0e1ffff  ................
 7240 1c0b0000 d0e1ffff 300b0000 e0e1ffff  ........0.......
 7250 440b0000 20e2ffff 680b0000 50e2ffff  D... ...h...P...
 7260 7c0b0000 e0e2ffff 940b0000 30e3ffff  |...........0...
 7270 ac0b0000 50e3ffff c80b0000 80e3ffff  ....P...........
 7280 e40b0000 b0e3ffff 0c0c0000 d0e3ffff  ................
 7290 280c0000 10e4ffff 400c0000 90e4ffff  (.......@.......
 72a0 780c0000 d0e4ffff 980c0000 30e5ffff  x...........0...
 72b0 c80c0000 c0e5ffff 080d0000 20e6ffff  ............ ...
 72c0 380d0000 80e6ffff 580d0000 c0e6ffff  8.......X.......
 72d0 780d0000 20e7ffff c00d0000 30e7ffff  x... .......0...
 72e0 d80d0000                             ....            
Contents of section .eh_frame:
 72e8 14000000 00000000 017a5200 01781001  .........zR..x..
 72f8 1b0c0708 90010710 14000000 1c000000  ................
 7308 18b5ffff 2b000000 00000000 00000000  ....+...........
 7318 14000000 00000000 017a5200 01781001  .........zR..x..
 7328 1b0c0708 90010000 24000000 1c000000  ........$.......
 7338 e8acffff e0020000 000e1046 0e184a0f  ...........F..J.
 7348 0b770880 003f1a3b 2a332422 00000000  .w...?.;*3$"....
 7358 14000000 44000000 a0afffff 08000000  ....D...........
 7368 00000000 00000000 18000000 5c000000  ............\...
 7378 98b5ffff 4c000000 00480e10 83026c0a  ....L....H....l.
 7388 0e084c0b 20000000 78000000 ccb5ffff  ..L. ...x.......
 7398 74030000 00420e10 8c02490e 18860341  t....B....I....A
 73a8 0e208304 440ea001 5c000000 9c000000  . ..D...\.......
 73b8 78afffff ee040000 00420e10 8f02420e  x........B....B.
 73c8 188e0342 0e208d04 420e288c 05440e30  ...B. ..B.(..D.0
 73d8 8606440e 38830747 0ee00b03 fc010a0e  ..D.8..G........
 73e8 e80b4b0e f00b610b 02e30a0e 38410e30  ..K...a.....8A.0
 73f8 410e2842 0e20420e 18420e10 420e0841  A.(B. B..B..B..A
 7408 0b000000 00000000 10000000 fc000000  ................
 7418 c8b8ffff 08000000 00000000 10000000  ................
 7428 10010000 c4b8ffff 08000000 00000000  ................
 7438 2c000000 24010000 c0b8ffff a4000000  ,...$...........
 7448 00410e10 8602410e 18830344 0e207a0a  .A....A....D. z.
 7458 0e18410e 10410e08 410b0000 00000000  ..A..A..A.......
 7468 1c000000 54010000 40b9ffff 9f000000  ....T...@.......
 7478 00410e10 8302027b 0a0e0841 0b000000  .A.....{...A....
 7488 38000000 74010000 c0b9ffff 0c010000  8...t...........
 7498 00420e10 8c024c0e 18860346 0e208304  .B....L....F. ..
 74a8 510a0e18 410e1042 0e08480b 02ba0a0e  Q...A..B..H.....
 74b8 18410e10 420e0843 0b000000 74000000  .A..B..C....t...
 74c8 b0010000 94baffff fb120000 00420e10  .............B..
 74d8 8f02420e 188e0345 0e208d04 420e288c  ..B....E. ..B.(.
 74e8 05440e30 8606440e 3883074a 0e800203  .D.0..D.8..J....
 74f8 49040e88 024a0e90 024a0e98 02420ea0  I....J...J...B..
 7508 025a0e80 02640a0e 38410e30 410e2842  .Z...d..8A.0A.(B
 7518 0e20420e 18420e10 420e0844 0b036e0d  . B..B..B..D..n.
 7528 0e880250 0e900244 0e980244 0ea0025b  ...P...D...D...[
 7538 0e800200 24000000 00000000 017a5200  ....$........zR.
 7548 01781001 1b0c0708 90010e80 02830786  .x..............
 7558 068c058d 048e038f 02000000 10000000  ................
 7568 2c000000 a4adffff 05000000 00000000  ,...............
 7578 68000000 64020000 e0ccffff a6010000  h...d...........
 7588 00420e10 8f02450e 188e0345 0e208d04  .B....E....E. ..
 7598 420e288c 05410e30 8606440e 38830744  B.(..A.0..D.8..D
 75a8 0e600299 0e68620e 70490e78 420e8001  .`...hb.pI.xB...
 75b8 530e6002 400e6854 0e70430e 78420e80  S.`.@.hT.pC.xB..
 75c8 01580e60 4c0a0e38 440e3041 0e28420e  .X.`L..8D.0A.(B.
 75d8 20420e18 420e1042 0e08460b 20000000   B..B..B..F. ...
 75e8 00000000 017a5200 01781001 1b0c0708  .....zR..x......
 75f8 90010e60 83078606 8c058d04 8e038f02  ...`............
 7608 10000000 28000000 05adffff 05000000  ....(...........
 7618 00000000 28000000 08030000 eccdffff  ....(...........
 7628 36000000 00420e10 8c02410e 18860341  6....B....A....A
 7638 0e208304 6e0e1841 0e10420e 08000000  . ..n..A..B.....
 7648 10000000 34030000 00ceffff 11000000  ....4...........
 7658 00000000 10000000 48030000 0cceffff  ........H.......
 7668 11000000 00000000 10000000 5c030000  ............\...
 7678 18ceffff 35000000 00000000 10000000  ....5...........
 7688 70030000 44ceffff 15000000 00000000  p...D...........
 7698 10000000 84030000 50ceffff 2d000000  ........P...-...
 76a8 00680e10 50000000 98030000 6cceffff  .h..P.......l...
 76b8 74000000 00420e10 8f024c0e 188e0345  t....B....L....E
 76c8 0e208d04 450e288c 05410e30 8606410e  . ..E.(..A.0..A.
 76d8 38830747 0e50550e 58570e60 490e6841  8..G.PU.XW.`I.hA
 76e8 0e70520e 38410e30 410e2842 0e20420e  .pR.8A.0A.(B. B.
 76f8 18420e10 420e0800 68000000 ec030000  .B..B...h.......
 7708 98ceffff e3000000 00420e10 8f024c0e  .........B....L.
 7718 188e0345 0e208d04 420e288c 05440e30  ...E. ..B.(..D.0
 7728 8606410e 38830747 0e70680e 78540e80  ..A.8..G.ph.xT..
 7738 01430e88 01420e90 01570e70 5f0e7849  .C...B...W.p_.xI
 7748 0e800143 0e880147 0e900152 0e705b0e  ...C...G...R.p[.
 7758 38410e30 410e2842 0e20420e 18420e10  8A.0A.(B. B..B..
 7768 420e0800 10000000 58040000 1ccfffff  B.......X.......
 7778 0a000000 00000000 28000000 6c040000  ........(...l...
 7788 18cfffff 93000000 00480e10 8c02480e  .........H....H.
 7798 18860341 0e208304 027e0e18 410e1042  ...A. ...~..A..B
 77a8 0e080000 10000000 98040000 8ccfffff  ................
 77b8 13000000 00000000 10000000 ac040000  ................
 77c8 98cfffff 0c000000 00000000 10000000  ................
 77d8 c0040000 94cfffff 18000000 00000000  ................
 77e8 10000000 d4040000 a0cfffff 14000000  ................
 77f8 00000000 18000000 e8040000 accfffff  ................
 7808 8d000000 00440e50 02830a0e 08410b00  .....D.P.....A..
 7818 14000000 00000000 017a5200 01781001  .........zR..x..
 7828 1b0c0708 90010e50 10000000 1c000000  .......P........
 7838 e2aaffff 05000000 00000000 18000000  ................
 7848 30050000 f4cfffff 89000000 00440e50  0............D.P
 7858 027f0a0e 08410b00 10000000 4c000000  .....A......L...
 7868 b7aaffff 05000000 00000000 10000000  ................
 7878 60050000 54d0ffff 0c000000 00000000  `...T...........
 7888 10000000 74050000 50d0ffff 0f000000  ....t...P.......
 7898 00000000 18000000 88050000 4cd0ffff  ............L...
 78a8 98000000 00440e50 028e0a0e 08410b00  .....D.P.....A..
 78b8 10000000 a4050000 d0d0ffff 10000000  ................
 78c8 00000000 10000000 b8050000 ccd0ffff  ................
 78d8 11000000 00000000 10000000 cc050000  ................
 78e8 d8d0ffff 0a000000 00000000 18000000  ................
 78f8 e0050000 d4d0ffff 93000000 00440e50  .............D.P
 7908 02890a0e 08410b00 10000000 fc000000  .....A..........
 7918 0caaffff 05000000 00000000 18000000  ................
 7928 10060000 44d1ffff 91000000 00440e50  ....D........D.P
 7938 02820a0e 08410b00 10000000 2c060000  .....A......,...
 7948 c8d1ffff 0c000000 00000000 10000000  ................
 7958 40060000 c4d1ffff 17000000 00000000  @...............
 7968 10000000 54060000 d0d1ffff 13000000  ....T...........
 7978 00000000 10000000 68060000 dcd1ffff  ........h.......
 7988 0c000000 00000000 10000000 7c060000  ............|...
 7998 d8d1ffff 14000000 00000000 10000000  ................
 79a8 90060000 e4d1ffff 13000000 00000000  ................
 79b8 14000000 a4060000 f0d1ffff 18000000  ................
 79c8 00000000 00000000 10010000 bc060000  ................
 79d8 f8d1ffff 07040000 00420e10 8f02420e  .........B....B.
 79e8 188e0342 0e208d04 420e288c 05440e30  ...B. ..B.(..D.0
 79f8 8606440e 38830747 0e6002fd 0e68570e  ..D.8..G.`...hW.
 7a08 70420e78 420e8001 420e8801 420e9001  pB.xB...B...B...
 7a18 530e6044 0a0e3841 0e30410e 28420e20  S.`D..8A.0A.(B. 
 7a28 420e1842 0e10420e 08440b02 500a0e68  B..B..B..D..P..h
 7a38 480b5a0a 0e384f0e 30430e28 420e2042  H.Z..8O.0C.(B. B
 7a48 0e18420e 10420e08 4c0b5e0a 0e384a0e  ..B..B..L.^..8J.
 7a58 30490e28 440e2042 0e18420e 10420e08  0I.(D. B..B..B..
 7a68 450b620a 0e384d0e 30490e28 440e2042  E.b..8M.0I.(D. B
 7a78 0e18420e 10420e08 4e0b660e 68420e70  ..B..B..N.f.hB.p
 7a88 5c0e6841 0e60440a 0e38410e 30410e28  \.hA.`D..8A.0A.(
 7a98 420e2042 0e18420e 10420e08 450b680a  B. B..B..B..E.h.
 7aa8 0e68480b 720e6845 0e70420e 78420e80  .hH.r.hE.pB.xB..
 7ab8 015e0e60 440a0e38 410e3041 0e28420e  .^.`D..8A.0A.(B.
 7ac8 20420e18 420e1042 0e08410b 790a0e68   B..B..B..A.y..h
 7ad8 420e7042 0e78420e 8001510b 10000000  B.pB.xB...Q.....
 7ae8 04050000 3da8ffff 05000000 00000000  ....=...........
 7af8 10000000 e4070000 e0d4ffff 20000000  ............ ...
 7b08 00000000 18000000 f8070000 ecd4ffff  ................
 7b18 8a000000 00440e70 02800a0e 08410b00  .....D.p.....A..
 7b28 28000000 14080000 60d5ffff dd000000  (.......`.......
 7b38 00410e10 8602470e 18830349 0ed00102  .A....G....I....
 7b48 c40a0e18 410e1041 0e08410b 18000000  ....A..A..A.....
 7b58 40080000 14d6ffff 80000000 00410e10  @............A..
 7b68 83020277 0e080000 18000000 5c080000  ...w........\...
 7b78 78d6ffff 1a000000 00410e10 8302530a  x........A....S.
 7b88 0e08410b 10000000 78080000 7cd6ffff  ..A.....x...|...
 7b98 21000000 005c0e10 10000000 8c080000  !....\..........
 7ba8 98d6ffff 02000000 00000000 20000000  ............ ...
 7bb8 a0080000 94d6ffff 36000000 00410e10  ........6....A..
 7bc8 8302600a 0e08470b 480a0e08 410b0000  ..`...G.H...A...
 7bd8 10000000 c4080000 b0d6ffff 21000000  ............!...
 7be8 005c0e10 14000000 d8080000 ccd6ffff  .\..............
 7bf8 86000000 00025c0e 104c0e08 14000000  ......\..L......
 7c08 f0080000 44d7ffff 50000000 00024b0e  ....D...P.....K.
 7c18 10000000 18000000 08090000 7cd7ffff  ............|...
 7c28 17000000 00410e10 83024e0e 08000000  .....A....N.....
 7c38 18000000 24090000 80d7ffff 2e000000  ....$...........
 7c48 00470e10 610a0e08 410b0000 24000000  .G..a...A...$...
 7c58 40090000 94d7ffff 28000000 00410e10  @.......(....A..
 7c68 8602470e 18830347 0e20490e 18470e10  ..G....G. I..G..
 7c78 440e0800 18000000 68090000 9cd7ffff  D.......h.......
 7c88 13000000 00410e10 83024c0e 08000000  .....A....L.....
 7c98 14000000 84090000 a0d7ffff 35000000  ............5...
 7ca8 00440e10 00000000 34000000 9c090000  .D......4.......
 7cb8 c8d7ffff 7b000000 00420e10 8c02410e  ....{....B....A.
 7cc8 18860341 0e208304 7d0a0e18 410e1042  ...A. ..}...A..B
 7cd8 0e08440b 600a0e18 410e1042 0e08450b  ..D.`...A..B..E.
 7ce8 1c000000 d4090000 10d8ffff 40000000  ............@...
 7cf8 00410e10 83025d0a 0e084a0b 530e0800  .A....]...J.S...
 7d08 2c000000 f4090000 30d8ffff 57000000  ,.......0...W...
 7d18 00630e10 8c02440e 18860344 0e208304  .c....D....D. ..
 7d28 680e1841 0e10420e 08000000 00000000  h..A..B.........
 7d38 3c000000 240a0000 60d8ffff 86000000  <...$...`.......
 7d48 00420e10 8d02450e 188c0344 0e208604  .B....E....D. ..
 7d58 410e2883 05470e40 02490a0e 28410e20  A.(..G.@.I..(A. 
 7d68 410e1842 0e10420e 08460b00 00000000  A..B..B..F......
 7d78 2c000000 640a0000 b0d8ffff 5d000000  ,...d.......]...
 7d88 00420e10 8c02410e 18860344 0e208304  .B....A....D. ..
 7d98 740a0e18 410e1042 0e08420b 00000000  t...A..B..B.....
 7da8 1c000000 940a0000 e0d8ffff 60000000  ............`...
 7db8 00440e10 750a0e08 470b5f0e 08000000  .D..u...G._.....
 7dc8 1c000000 b40a0000 20d9ffff 3c000000  ........ ...<...
 7dd8 00440e10 610a0e08 4b0b4b0e 08000000  .D..a...K.K.....
 7de8 44000000 d40a0000 40d9ffff 5d000000  D.......@...]...
 7df8 00420e10 8f02450e 188e0345 0e208d04  .B....E....E. ..
 7e08 450e288c 05480e30 8606480e 38830747  E.(..H.0..H.8..G
 7e18 0e406a0e 38410e30 410e2842 0e20420e  .@j.8A.0A.(B. B.
 7e28 18420e10 420e0800 14000000 1c0b0000  .B..B...........
 7e38 58d9ffff 01000000 00000000 00000000  X...............
 7e48 10000000 340b0000 50d9ffff 0e000000  ....4...P.......
 7e58 00000000 00000000                    ........        
Contents of section .init_array:
 99d0 00290000 00000000                    .)......        
Contents of section .fini_array:
 99d8 c0280000 00000000                    .(......        
Contents of section .data.rel.ro:
 99e0 65610000 00000000 00000000 00000000  ea..............
 99f0 00000000 00000000 7effffff 00000000  ........~.......
 9a00 a1610000 00000000 00000000 00000000  .a..............
 9a10 00000000 00000000 7dffffff 00000000  ........}.......
 9a20 00000000 00000000 00000000 00000000  ................
 9a30 00000000 00000000 00000000 00000000  ................
 9a40 6a610000 00000000 00000000 00000000  ja..............
 9a50 00000000 00000000 61000000 00000000  ........a.......
 9a60 6e610000 00000000 00000000 00000000  na..............
 9a70 00000000 00000000 73000000 00000000  ........s.......
 9a80 7a610000 00000000 00000000 00000000  za..............
 9a90 00000000 00000000 73000000 00000000  ........s.......
 9aa0 82610000 00000000 00000000 00000000  .a..............
 9ab0 00000000 00000000 6e000000 00000000  ........n.......
 9ac0 8b610000 00000000 00000000 00000000  .a..............
 9ad0 00000000 00000000 72000000 00000000  ........r.......
 9ae0 92610000 00000000 00000000 00000000  .a..............
 9af0 00000000 00000000 72000000 00000000  ........r.......
 9b00 9a610000 00000000 00000000 00000000  .a..............
 9b10 00000000 00000000 76000000 00000000  ........v.......
 9b20 a9610000 00000000 00000000 00000000  .a..............
 9b30 00000000 00000000 6d000000 00000000  ........m.......
 9b40 b1610000 00000000 00000000 00000000  .a..............
 9b50 00000000 00000000 70000000 00000000  ........p.......
 9b60 bb610000 00000000 00000000 00000000  .a..............
 9b70 00000000 00000000 69000000 00000000  ........i.......
 9b80 cd610000 00000000 00000000 00000000  .a..............
 9b90 00000000 00000000 6f000000 00000000  ........o.......
 9ba0 65610000 00000000 00000000 00000000  ea..............
 9bb0 00000000 00000000 7effffff 00000000  ........~.......
 9bc0 a1610000 00000000 00000000 00000000  .a..............
 9bd0 00000000 00000000 7dffffff 00000000  ........}.......
 9be0 00000000 00000000 00000000 00000000  ................
 9bf0 00000000 00000000 00000000 00000000  ................
 9c00 49660000 00000000 51660000 00000000  If......Qf......
 9c10 57660000 00000000 64660000 00000000  Wf......df......
 9c20 71660000 00000000 85660000 00000000  qf.......f......
 9c30 87660000 00000000 6a660000 00000000  .f......jf......
 9c40 de600000 00000000 8f660000 00000000  .`.......f......
 9c50 00000000 00000000                    ........        
Contents of section .dynamic:
 9c58 01000000 00000000 01000000 00000000  ................
 9c68 0c000000 00000000 00200000 00000000  ......... ......
 9c78 0d000000 00000000 b0570000 00000000  .........W......
 9c88 19000000 00000000 d0990000 00000000  ................
 9c98 1b000000 00000000 08000000 00000000  ................
 9ca8 1a000000 00000000 d8990000 00000000  ................
 9cb8 1c000000 00000000 08000000 00000000  ................
 9cc8 f5feff6f 00000000 08030000 00000000  ...o............
 9cd8 05000000 00000000 f8090000 00000000  ................
 9ce8 06000000 00000000 b0030000 00000000  ................
 9cf8 0a000000 00000000 3a030000 00000000  ........:.......
 9d08 0b000000 00000000 18000000 00000000  ................
 9d18 15000000 00000000 00000000 00000000  ................
 9d28 03000000 00000000 489e0000 00000000  ........H.......
 9d38 02000000 00000000 38040000 00000000  ........8.......
 9d48 14000000 00000000 07000000 00000000  ................
 9d58 17000000 00000000 f0110000 00000000  ................
 9d68 07000000 00000000 180e0000 00000000  ................
 9d78 08000000 00000000 d8030000 00000000  ................
 9d88 09000000 00000000 18000000 00000000  ................
 9d98 1e000000 00000000 08000000 00000000  ................
 9da8 fbffff6f 00000000 01000008 00000000  ...o............
 9db8 feffff6f 00000000 b80d0000 00000000  ...o............
 9dc8 ffffff6f 00000000 01000000 00000000  ...o............
 9dd8 f0ffff6f 00000000 320d0000 00000000  ...o....2.......
 9de8 f9ffff6f 00000000 1f000000 00000000  ...o............
 9df8 00000000 00000000 00000000 00000000  ................
 9e08 00000000 00000000 00000000 00000000  ................
 9e18 00000000 00000000 00000000 00000000  ................
 9e28 00000000 00000000 00000000 00000000  ................
 9e38 00000000 00000000 00000000 00000000  ................
Contents of section .got:
 9e48 589c0000 00000000 00000000 00000000  X...............
 9e58 00000000 00000000 36200000 00000000  ........6 ......
 9e68 46200000 00000000 56200000 00000000  F ......V ......
 9e78 66200000 00000000 76200000 00000000  f ......v ......
 9e88 86200000 00000000 96200000 00000000  . ....... ......
 9e98 a6200000 00000000 b6200000 00000000  . ....... ......
 9ea8 c6200000 00000000 d6200000 00000000  . ....... ......
 9eb8 e6200000 00000000 f6200000 00000000  . ....... ......
 9ec8 06210000 00000000 16210000 00000000  .!.......!......
 9ed8 26210000 00000000 36210000 00000000  &!......6!......
 9ee8 46210000 00000000 56210000 00000000  F!......V!......
 9ef8 66210000 00000000 76210000 00000000  f!......v!......
 9f08 86210000 00000000 96210000 00000000  .!.......!......
 9f18 a6210000 00000000 b6210000 00000000  .!.......!......
 9f28 c6210000 00000000 d6210000 00000000  .!.......!......
 9f38 e6210000 00000000 f6210000 00000000  .!.......!......
 9f48 06220000 00000000 16220000 00000000  ."......."......
 9f58 26220000 00000000 36220000 00000000  &"......6"......
 9f68 46220000 00000000 56220000 00000000  F"......V"......
 9f78 66220000 00000000 76220000 00000000  f"......v"......
 9f88 86220000 00000000 96220000 00000000  ."......."......
 9f98 a6220000 00000000 b6220000 00000000  ."......."......
 9fa8 c6220000 00000000 d6220000 00000000  ."......."......
 9fb8 e6220000 00000000 f6220000 00000000  ."......."......
 9fc8 00000000 00000000 00000000 00000000  ................
 9fd8 00000000 00000000 00000000 00000000  ................
 9fe8 00000000 00000000                    ........        
Contents of section .data:
 a000 00000000 00000000 08a00000 00000000  ................
 a010 01000000 00000000 d3650000 00000000  .........e......
 a020 01000000 00000000 00000000 00000000  ................
 a030 00000000 00000000 00000000 00000000  ................
 a040 08000000 00000000 00000000 00000000  ................
 a050 00000000 00000000 00000000 00000000  ................
 a060 00000000 00000000 00000000 00000000  ................
 a070 00000000 00000000 01000000 00000000  ................
 a080 90a00000 00000000 00000000 00000000  ................
 a090 00010000 00000000 00a10000 00000000  ................
Contents of section .gnu_debuglink:
 0000 64353265 64376334 33363061 65303930  d52ed7c4360ae090
 0010 32366133 32623364 38633965 63313932  26a32b3d8c9ec192
 0020 30316130 30342e64 65627567 00000000  01a004.debug....
 0030 89198e03                             ....            

Disassembly of section .init:

0000000000002000 <.init>:
    2000:	48 83 ec 08          	sub    $0x8,%rsp
    2004:	48 8b 05 cd 7f 00 00 	mov    0x7fcd(%rip),%rax        # 9fd8 <__gmon_start__>
    200b:	48 85 c0             	test   %rax,%rax
    200e:	74 02                	je     2012 <free@plt-0x1e>
    2010:	ff d0                	callq  *%rax
    2012:	48 83 c4 08          	add    $0x8,%rsp
    2016:	c3                   	retq   

Disassembly of section .plt:

0000000000002020 <free@plt-0x10>:
    2020:	ff 35 2a 7e 00 00    	pushq  0x7e2a(%rip)        # 9e50 <quoting_style_args@@Base+0x250>
    2026:	ff 25 2c 7e 00 00    	jmpq   *0x7e2c(%rip)        # 9e58 <quoting_style_args@@Base+0x258>
    202c:	0f 1f 40 00          	nopl   0x0(%rax)

0000000000002030 <free@plt>:
    2030:	ff 25 2a 7e 00 00    	jmpq   *0x7e2a(%rip)        # 9e60 <free@GLIBC_2.2.5>
    2036:	68 00 00 00 00       	pushq  $0x0
    203b:	e9 e0 ff ff ff       	jmpq   2020 <free@plt-0x10>

0000000000002040 <abort@plt>:
    2040:	ff 25 22 7e 00 00    	jmpq   *0x7e22(%rip)        # 9e68 <abort@GLIBC_2.2.5>
    2046:	68 01 00 00 00       	pushq  $0x1
    204b:	e9 d0 ff ff ff       	jmpq   2020 <free@plt-0x10>

0000000000002050 <__errno_location@plt>:
    2050:	ff 25 1a 7e 00 00    	jmpq   *0x7e1a(%rip)        # 9e70 <__errno_location@GLIBC_2.2.5>
    2056:	68 02 00 00 00       	pushq  $0x2
    205b:	e9 c0 ff ff ff       	jmpq   2020 <free@plt-0x10>

0000000000002060 <strncmp@plt>:
    2060:	ff 25 12 7e 00 00    	jmpq   *0x7e12(%rip)        # 9e78 <strncmp@GLIBC_2.2.5>
    2066:	68 03 00 00 00       	pushq  $0x3
    206b:	e9 b0 ff ff ff       	jmpq   2020 <free@plt-0x10>

0000000000002070 <_exit@plt>:
    2070:	ff 25 0a 7e 00 00    	jmpq   *0x7e0a(%rip)        # 9e80 <_exit@GLIBC_2.2.5>
    2076:	68 04 00 00 00       	pushq  $0x4
    207b:	e9 a0 ff ff ff       	jmpq   2020 <free@plt-0x10>

0000000000002080 <__fpending@plt>:
    2080:	ff 25 02 7e 00 00    	jmpq   *0x7e02(%rip)        # 9e88 <__fpending@GLIBC_2.2.5>
    2086:	68 05 00 00 00       	pushq  $0x5
    208b:	e9 90 ff ff ff       	jmpq   2020 <free@plt-0x10>

0000000000002090 <textdomain@plt>:
    2090:	ff 25 fa 7d 00 00    	jmpq   *0x7dfa(%rip)        # 9e90 <textdomain@GLIBC_2.2.5>
    2096:	68 06 00 00 00       	pushq  $0x6
    209b:	e9 80 ff ff ff       	jmpq   2020 <free@plt-0x10>

00000000000020a0 <fclose@plt>:
    20a0:	ff 25 f2 7d 00 00    	jmpq   *0x7df2(%rip)        # 9e98 <fclose@GLIBC_2.2.5>
    20a6:	68 07 00 00 00       	pushq  $0x7
    20ab:	e9 70 ff ff ff       	jmpq   2020 <free@plt-0x10>

00000000000020b0 <bindtextdomain@plt>:
    20b0:	ff 25 ea 7d 00 00    	jmpq   *0x7dea(%rip)        # 9ea0 <bindtextdomain@GLIBC_2.2.5>
    20b6:	68 08 00 00 00       	pushq  $0x8
    20bb:	e9 60 ff ff ff       	jmpq   2020 <free@plt-0x10>

00000000000020c0 <dcgettext@plt>:
    20c0:	ff 25 e2 7d 00 00    	jmpq   *0x7de2(%rip)        # 9ea8 <dcgettext@GLIBC_2.2.5>
    20c6:	68 09 00 00 00       	pushq  $0x9
    20cb:	e9 50 ff ff ff       	jmpq   2020 <free@plt-0x10>

00000000000020d0 <__ctype_get_mb_cur_max@plt>:
    20d0:	ff 25 da 7d 00 00    	jmpq   *0x7dda(%rip)        # 9eb0 <__ctype_get_mb_cur_max@GLIBC_2.2.5>
    20d6:	68 0a 00 00 00       	pushq  $0xa
    20db:	e9 40 ff ff ff       	jmpq   2020 <free@plt-0x10>

00000000000020e0 <strlen@plt>:
    20e0:	ff 25 d2 7d 00 00    	jmpq   *0x7dd2(%rip)        # 9eb8 <strlen@GLIBC_2.2.5>
    20e6:	68 0b 00 00 00       	pushq  $0xb
    20eb:	e9 30 ff ff ff       	jmpq   2020 <free@plt-0x10>

00000000000020f0 <__stack_chk_fail@plt>:
    20f0:	ff 25 ca 7d 00 00    	jmpq   *0x7dca(%rip)        # 9ec0 <__stack_chk_fail@GLIBC_2.4>
    20f6:	68 0c 00 00 00       	pushq  $0xc
    20fb:	e9 20 ff ff ff       	jmpq   2020 <free@plt-0x10>

0000000000002100 <getopt_long@plt>:
    2100:	ff 25 c2 7d 00 00    	jmpq   *0x7dc2(%rip)        # 9ec8 <getopt_long@GLIBC_2.2.5>
    2106:	68 0d 00 00 00       	pushq  $0xd
    210b:	e9 10 ff ff ff       	jmpq   2020 <free@plt-0x10>

0000000000002110 <mbrtowc@plt>:
    2110:	ff 25 ba 7d 00 00    	jmpq   *0x7dba(%rip)        # 9ed0 <mbrtowc@GLIBC_2.2.5>
    2116:	68 0e 00 00 00       	pushq  $0xe
    211b:	e9 00 ff ff ff       	jmpq   2020 <free@plt-0x10>

0000000000002120 <__overflow@plt>:
    2120:	ff 25 b2 7d 00 00    	jmpq   *0x7db2(%rip)        # 9ed8 <__overflow@GLIBC_2.2.5>
    2126:	68 0f 00 00 00       	pushq  $0xf
    212b:	e9 f0 fe ff ff       	jmpq   2020 <free@plt-0x10>

0000000000002130 <strrchr@plt>:
    2130:	ff 25 aa 7d 00 00    	jmpq   *0x7daa(%rip)        # 9ee0 <strrchr@GLIBC_2.2.5>
    2136:	68 10 00 00 00       	pushq  $0x10
    213b:	e9 e0 fe ff ff       	jmpq   2020 <free@plt-0x10>

0000000000002140 <uname@plt>:
    2140:	ff 25 a2 7d 00 00    	jmpq   *0x7da2(%rip)        # 9ee8 <uname@GLIBC_2.2.5>
    2146:	68 11 00 00 00       	pushq  $0x11
    214b:	e9 d0 fe ff ff       	jmpq   2020 <free@plt-0x10>

0000000000002150 <lseek@plt>:
    2150:	ff 25 9a 7d 00 00    	jmpq   *0x7d9a(%rip)        # 9ef0 <lseek@GLIBC_2.2.5>
    2156:	68 12 00 00 00       	pushq  $0x12
    215b:	e9 c0 fe ff ff       	jmpq   2020 <free@plt-0x10>

0000000000002160 <memset@plt>:
    2160:	ff 25 92 7d 00 00    	jmpq   *0x7d92(%rip)        # 9ef8 <memset@GLIBC_2.2.5>
    2166:	68 13 00 00 00       	pushq  $0x13
    216b:	e9 b0 fe ff ff       	jmpq   2020 <free@plt-0x10>

0000000000002170 <memcmp@plt>:
    2170:	ff 25 8a 7d 00 00    	jmpq   *0x7d8a(%rip)        # 9f00 <memcmp@GLIBC_2.2.5>
    2176:	68 14 00 00 00       	pushq  $0x14
    217b:	e9 a0 fe ff ff       	jmpq   2020 <free@plt-0x10>

0000000000002180 <fputs_unlocked@plt>:
    2180:	ff 25 82 7d 00 00    	jmpq   *0x7d82(%rip)        # 9f08 <fputs_unlocked@GLIBC_2.2.5>
    2186:	68 15 00 00 00       	pushq  $0x15
    218b:	e9 90 fe ff ff       	jmpq   2020 <free@plt-0x10>

0000000000002190 <calloc@plt>:
    2190:	ff 25 7a 7d 00 00    	jmpq   *0x7d7a(%rip)        # 9f10 <calloc@GLIBC_2.2.5>
    2196:	68 16 00 00 00       	pushq  $0x16
    219b:	e9 80 fe ff ff       	jmpq   2020 <free@plt-0x10>

00000000000021a0 <strcmp@plt>:
    21a0:	ff 25 72 7d 00 00    	jmpq   *0x7d72(%rip)        # 9f18 <strcmp@GLIBC_2.2.5>
    21a6:	68 17 00 00 00       	pushq  $0x17
    21ab:	e9 70 fe ff ff       	jmpq   2020 <free@plt-0x10>

00000000000021b0 <memcpy@plt>:
    21b0:	ff 25 6a 7d 00 00    	jmpq   *0x7d6a(%rip)        # 9f20 <memcpy@GLIBC_2.14>
    21b6:	68 18 00 00 00       	pushq  $0x18
    21bb:	e9 60 fe ff ff       	jmpq   2020 <free@plt-0x10>

00000000000021c0 <fileno@plt>:
    21c0:	ff 25 62 7d 00 00    	jmpq   *0x7d62(%rip)        # 9f28 <fileno@GLIBC_2.2.5>
    21c6:	68 19 00 00 00       	pushq  $0x19
    21cb:	e9 50 fe ff ff       	jmpq   2020 <free@plt-0x10>

00000000000021d0 <fgets_unlocked@plt>:
    21d0:	ff 25 5a 7d 00 00    	jmpq   *0x7d5a(%rip)        # 9f30 <fgets_unlocked@GLIBC_2.2.5>
    21d6:	68 1a 00 00 00       	pushq  $0x1a
    21db:	e9 40 fe ff ff       	jmpq   2020 <free@plt-0x10>

00000000000021e0 <malloc@plt>:
    21e0:	ff 25 52 7d 00 00    	jmpq   *0x7d52(%rip)        # 9f38 <malloc@GLIBC_2.2.5>
    21e6:	68 1b 00 00 00       	pushq  $0x1b
    21eb:	e9 30 fe ff ff       	jmpq   2020 <free@plt-0x10>

00000000000021f0 <fflush@plt>:
    21f0:	ff 25 4a 7d 00 00    	jmpq   *0x7d4a(%rip)        # 9f40 <fflush@GLIBC_2.2.5>
    21f6:	68 1c 00 00 00       	pushq  $0x1c
    21fb:	e9 20 fe ff ff       	jmpq   2020 <free@plt-0x10>

0000000000002200 <nl_langinfo@plt>:
    2200:	ff 25 42 7d 00 00    	jmpq   *0x7d42(%rip)        # 9f48 <nl_langinfo@GLIBC_2.2.5>
    2206:	68 1d 00 00 00       	pushq  $0x1d
    220b:	e9 10 fe ff ff       	jmpq   2020 <free@plt-0x10>

0000000000002210 <__freading@plt>:
    2210:	ff 25 3a 7d 00 00    	jmpq   *0x7d3a(%rip)        # 9f50 <__freading@GLIBC_2.2.5>
    2216:	68 1e 00 00 00       	pushq  $0x1e
    221b:	e9 00 fe ff ff       	jmpq   2020 <free@plt-0x10>

0000000000002220 <realloc@plt>:
    2220:	ff 25 32 7d 00 00    	jmpq   *0x7d32(%rip)        # 9f58 <realloc@GLIBC_2.2.5>
    2226:	68 1f 00 00 00       	pushq  $0x1f
    222b:	e9 f0 fd ff ff       	jmpq   2020 <free@plt-0x10>

0000000000002230 <setlocale@plt>:
    2230:	ff 25 2a 7d 00 00    	jmpq   *0x7d2a(%rip)        # 9f60 <setlocale@GLIBC_2.2.5>
    2236:	68 20 00 00 00       	pushq  $0x20
    223b:	e9 e0 fd ff ff       	jmpq   2020 <free@plt-0x10>

0000000000002240 <__printf_chk@plt>:
    2240:	ff 25 22 7d 00 00    	jmpq   *0x7d22(%rip)        # 9f68 <__printf_chk@GLIBC_2.3.4>
    2246:	68 21 00 00 00       	pushq  $0x21
    224b:	e9 d0 fd ff ff       	jmpq   2020 <free@plt-0x10>

0000000000002250 <error@plt>:
    2250:	ff 25 1a 7d 00 00    	jmpq   *0x7d1a(%rip)        # 9f70 <error@GLIBC_2.2.5>
    2256:	68 22 00 00 00       	pushq  $0x22
    225b:	e9 c0 fd ff ff       	jmpq   2020 <free@plt-0x10>

0000000000002260 <fseeko@plt>:
    2260:	ff 25 12 7d 00 00    	jmpq   *0x7d12(%rip)        # 9f78 <fseeko@GLIBC_2.2.5>
    2266:	68 23 00 00 00       	pushq  $0x23
    226b:	e9 b0 fd ff ff       	jmpq   2020 <free@plt-0x10>

0000000000002270 <fopen@plt>:
    2270:	ff 25 0a 7d 00 00    	jmpq   *0x7d0a(%rip)        # 9f80 <fopen@GLIBC_2.2.5>
    2276:	68 24 00 00 00       	pushq  $0x24
    227b:	e9 a0 fd ff ff       	jmpq   2020 <free@plt-0x10>

0000000000002280 <__cxa_atexit@plt>:
    2280:	ff 25 02 7d 00 00    	jmpq   *0x7d02(%rip)        # 9f88 <__cxa_atexit@GLIBC_2.2.5>
    2286:	68 25 00 00 00       	pushq  $0x25
    228b:	e9 90 fd ff ff       	jmpq   2020 <free@plt-0x10>

0000000000002290 <exit@plt>:
    2290:	ff 25 fa 7c 00 00    	jmpq   *0x7cfa(%rip)        # 9f90 <exit@GLIBC_2.2.5>
    2296:	68 26 00 00 00       	pushq  $0x26
    229b:	e9 80 fd ff ff       	jmpq   2020 <free@plt-0x10>

00000000000022a0 <fwrite@plt>:
    22a0:	ff 25 f2 7c 00 00    	jmpq   *0x7cf2(%rip)        # 9f98 <fwrite@GLIBC_2.2.5>
    22a6:	68 27 00 00 00       	pushq  $0x27
    22ab:	e9 70 fd ff ff       	jmpq   2020 <free@plt-0x10>

00000000000022b0 <__fprintf_chk@plt>:
    22b0:	ff 25 ea 7c 00 00    	jmpq   *0x7cea(%rip)        # 9fa0 <__fprintf_chk@GLIBC_2.3.4>
    22b6:	68 28 00 00 00       	pushq  $0x28
    22bb:	e9 60 fd ff ff       	jmpq   2020 <free@plt-0x10>

00000000000022c0 <mbsinit@plt>:
    22c0:	ff 25 e2 7c 00 00    	jmpq   *0x7ce2(%rip)        # 9fa8 <mbsinit@GLIBC_2.2.5>
    22c6:	68 29 00 00 00       	pushq  $0x29
    22cb:	e9 50 fd ff ff       	jmpq   2020 <free@plt-0x10>

00000000000022d0 <iswprint@plt>:
    22d0:	ff 25 da 7c 00 00    	jmpq   *0x7cda(%rip)        # 9fb0 <iswprint@GLIBC_2.2.5>
    22d6:	68 2a 00 00 00       	pushq  $0x2a
    22db:	e9 40 fd ff ff       	jmpq   2020 <free@plt-0x10>

00000000000022e0 <strstr@plt>:
    22e0:	ff 25 d2 7c 00 00    	jmpq   *0x7cd2(%rip)        # 9fb8 <strstr@GLIBC_2.2.5>
    22e6:	68 2b 00 00 00       	pushq  $0x2b
    22eb:	e9 30 fd ff ff       	jmpq   2020 <free@plt-0x10>

00000000000022f0 <__ctype_b_loc@plt>:
    22f0:	ff 25 ca 7c 00 00    	jmpq   *0x7cca(%rip)        # 9fc0 <__ctype_b_loc@GLIBC_2.3>
    22f6:	68 2c 00 00 00       	pushq  $0x2c
    22fb:	e9 20 fd ff ff       	jmpq   2020 <free@plt-0x10>

Disassembly of section .plt.got:

0000000000002300 <__cxa_finalize@plt>:
    2300:	ff 25 e2 7c 00 00    	jmpq   *0x7ce2(%rip)        # 9fe8 <__cxa_finalize@GLIBC_2.2.5>
    2306:	66 90                	xchg   %ax,%ax

Disassembly of section .text:

0000000000002310 <.text>:
    2310:	e8 2b fd ff ff       	callq  2040 <abort@plt>
    2315:	e8 26 fd ff ff       	callq  2040 <abort@plt>
    231a:	e8 21 fd ff ff       	callq  2040 <abort@plt>
    231f:	e8 1c fd ff ff       	callq  2040 <abort@plt>
    2324:	e8 17 fd ff ff       	callq  2040 <abort@plt>
    2329:	e8 12 fd ff ff       	callq  2040 <abort@plt>
    232e:	66 90                	xchg   %ax,%ax
    2330:	41 57                	push   %r15
    2332:	41 56                	push   %r14
    2334:	41 55                	push   %r13
    2336:	41 54                	push   %r12
    2338:	41 89 fc             	mov    %edi,%r12d
    233b:	55                   	push   %rbp
    233c:	48 89 f5             	mov    %rsi,%rbp
    233f:	53                   	push   %rbx
    2340:	48 81 ec a8 05 00 00 	sub    $0x5a8,%rsp
    2347:	48 8b 3e             	mov    (%rsi),%rdi
    234a:	64 48 8b 04 25 28 00 	mov    %fs:0x28,%rax
    2351:	00 00 
    2353:	48 89 84 24 98 05 00 	mov    %rax,0x598(%rsp)
    235a:	00 
    235b:	31 c0                	xor    %eax,%eax
    235d:	e8 4e 0a 00 00       	callq  2db0 <__cxa_finalize@plt+0xab0>
    2362:	48 8d 35 dc 3c 00 00 	lea    0x3cdc(%rip),%rsi        # 6045 <_IO_stdin_used@@Base+0x45>
    2369:	bf 06 00 00 00       	mov    $0x6,%edi
    236e:	e8 bd fe ff ff       	callq  2230 <setlocale@plt>
    2373:	48 8d 35 59 3d 00 00 	lea    0x3d59(%rip),%rsi        # 60d3 <_IO_stdin_used@@Base+0xd3>
    237a:	48 8d 3d 3d 3d 00 00 	lea    0x3d3d(%rip),%rdi        # 60be <_IO_stdin_used@@Base+0xbe>
    2381:	e8 2a fd ff ff       	callq  20b0 <bindtextdomain@plt>
    2386:	48 8d 3d 31 3d 00 00 	lea    0x3d31(%rip),%rdi        # 60be <_IO_stdin_used@@Base+0xbe>
    238d:	e8 fe fc ff ff       	callq  2090 <textdomain@plt>
    2392:	48 8d 3d 67 09 00 00 	lea    0x967(%rip),%rdi        # 2d00 <__cxa_finalize@plt+0xa00>
    2399:	e8 02 34 00 00       	callq  57a0 <__cxa_finalize@plt+0x34a0>
    239e:	83 3d 6b 7c 00 00 02 	cmpl   $0x2,0x7c6b(%rip)        # a010 <uname_mode@@Base>
    23a5:	0f 84 4f 01 00 00    	je     24fa <__cxa_finalize@plt+0x1fa>
    23ab:	31 db                	xor    %ebx,%ebx
    23ad:	4c 8d 2d 8c 76 00 00 	lea    0x768c(%rip),%r13        # 9a40 <version_etc_copyright@@Base+0x2a20>
    23b4:	0f 1f 40 00          	nopl   0x0(%rax)
    23b8:	45 31 c0             	xor    %r8d,%r8d
    23bb:	4c 89 e9             	mov    %r13,%rcx
    23be:	48 8d 15 3a 3d 00 00 	lea    0x3d3a(%rip),%rdx        # 60ff <_IO_stdin_used@@Base+0xff>
    23c5:	48 89 ee             	mov    %rbp,%rsi
    23c8:	44 89 e7             	mov    %r12d,%edi
    23cb:	e8 30 fd ff ff       	callq  2100 <getopt_long@plt>
    23d0:	83 f8 ff             	cmp    $0xffffffff,%eax
    23d3:	0f 84 c0 01 00 00    	je     2599 <__cxa_finalize@plt+0x299>
    23d9:	83 f8 6e             	cmp    $0x6e,%eax
    23dc:	0f 84 08 01 00 00    	je     24ea <__cxa_finalize@plt+0x1ea>
    23e2:	7e 1c                	jle    2400 <__cxa_finalize@plt+0x100>
    23e4:	83 f8 72             	cmp    $0x72,%eax
    23e7:	0f 84 05 01 00 00    	je     24f2 <__cxa_finalize@plt+0x1f2>
    23ed:	7f 41                	jg     2430 <__cxa_finalize@plt+0x130>
    23ef:	83 f8 6f             	cmp    $0x6f,%eax
    23f2:	75 24                	jne    2418 <__cxa_finalize@plt+0x118>
    23f4:	80 cb 80             	or     $0x80,%bl
    23f7:	eb bf                	jmp    23b8 <__cxa_finalize@plt+0xb8>
    23f9:	0f 1f 80 00 00 00 00 	nopl   0x0(%rax)
    2400:	83 f8 61             	cmp    $0x61,%eax
    2403:	0f 84 a7 00 00 00    	je     24b0 <__cxa_finalize@plt+0x1b0>
    2409:	7e 55                	jle    2460 <__cxa_finalize@plt+0x160>
    240b:	83 f8 69             	cmp    $0x69,%eax
    240e:	75 38                	jne    2448 <__cxa_finalize@plt+0x148>
    2410:	83 cb 40             	or     $0x40,%ebx
    2413:	eb a3                	jmp    23b8 <__cxa_finalize@plt+0xb8>
    2415:	0f 1f 00             	nopl   (%rax)
    2418:	83 f8 70             	cmp    $0x70,%eax
    241b:	0f 85 ee 03 00 00    	jne    280f <__cxa_finalize@plt+0x50f>
    2421:	83 cb 20             	or     $0x20,%ebx
    2424:	eb 92                	jmp    23b8 <__cxa_finalize@plt+0xb8>
    2426:	66 2e 0f 1f 84 00 00 	nopw   %cs:0x0(%rax,%rax,1)
    242d:	00 00 00 
    2430:	83 f8 73             	cmp    $0x73,%eax
    2433:	0f 85 87 00 00 00    	jne    24c0 <__cxa_finalize@plt+0x1c0>
    2439:	83 cb 01             	or     $0x1,%ebx
    243c:	e9 77 ff ff ff       	jmpq   23b8 <__cxa_finalize@plt+0xb8>
    2441:	0f 1f 80 00 00 00 00 	nopl   0x0(%rax)
    2448:	83 f8 6d             	cmp    $0x6d,%eax
    244b:	0f 85 be 03 00 00    	jne    280f <__cxa_finalize@plt+0x50f>
    2451:	83 cb 10             	or     $0x10,%ebx
    2454:	e9 5f ff ff ff       	jmpq   23b8 <__cxa_finalize@plt+0xb8>
    2459:	0f 1f 80 00 00 00 00 	nopl   0x0(%rax)
    2460:	3d 7d ff ff ff       	cmp    $0xffffff7d,%eax
    2465:	75 71                	jne    24d8 <__cxa_finalize@plt+0x1d8>
    2467:	83 3d a2 7b 00 00 01 	cmpl   $0x1,0x7ba2(%rip)        # a010 <uname_mode@@Base>
    246e:	48 8d 05 95 3b 00 00 	lea    0x3b95(%rip),%rax        # 600a <_IO_stdin_used@@Base+0xa>
    2475:	48 8d 35 88 3b 00 00 	lea    0x3b88(%rip),%rsi        # 6004 <_IO_stdin_used@@Base+0x4>
    247c:	48 8b 3d 25 7c 00 00 	mov    0x7c25(%rip),%rdi        # a0a8 <stdout@@GLIBC_2.2.5>
    2483:	48 0f 45 f0          	cmovne %rax,%rsi
    2487:	48 8b 0d 8a 7b 00 00 	mov    0x7b8a(%rip),%rcx        # a018 <Version@@Base>
    248e:	45 31 c9             	xor    %r9d,%r9d
    2491:	31 c0                	xor    %eax,%eax
    2493:	4c 8d 05 55 3c 00 00 	lea    0x3c55(%rip),%r8        # 60ef <_IO_stdin_used@@Base+0xef>
    249a:	48 8d 15 19 3c 00 00 	lea    0x3c19(%rip),%rdx        # 60ba <_IO_stdin_used@@Base+0xba>
    24a1:	e8 ea 2b 00 00       	callq  5090 <__cxa_finalize@plt+0x2d90>
    24a6:	31 ff                	xor    %edi,%edi
    24a8:	e8 e3 fd ff ff       	callq  2290 <exit@plt>
    24ad:	0f 1f 00             	nopl   (%rax)
    24b0:	bb ff ff ff ff       	mov    $0xffffffff,%ebx
    24b5:	e9 fe fe ff ff       	jmpq   23b8 <__cxa_finalize@plt+0xb8>
    24ba:	66 0f 1f 44 00 00    	nopw   0x0(%rax,%rax,1)
    24c0:	83 f8 76             	cmp    $0x76,%eax
    24c3:	0f 85 46 03 00 00    	jne    280f <__cxa_finalize@plt+0x50f>
    24c9:	83 cb 08             	or     $0x8,%ebx
    24cc:	e9 e7 fe ff ff       	jmpq   23b8 <__cxa_finalize@plt+0xb8>
    24d1:	0f 1f 80 00 00 00 00 	nopl   0x0(%rax)
    24d8:	3d 7e ff ff ff       	cmp    $0xffffff7e,%eax
    24dd:	0f 85 2c 03 00 00    	jne    280f <__cxa_finalize@plt+0x50f>
    24e3:	31 ff                	xor    %edi,%edi
    24e5:	e8 76 04 00 00       	callq  2960 <__cxa_finalize@plt+0x660>
    24ea:	83 cb 02             	or     $0x2,%ebx
    24ed:	e9 c6 fe ff ff       	jmpq   23b8 <__cxa_finalize@plt+0xb8>
    24f2:	83 cb 04             	or     $0x4,%ebx
    24f5:	e9 be fe ff ff       	jmpq   23b8 <__cxa_finalize@plt+0xb8>
    24fa:	45 31 c0             	xor    %r8d,%r8d
    24fd:	48 8d 0d dc 74 00 00 	lea    0x74dc(%rip),%rcx        # 99e0 <version_etc_copyright@@Base+0x29c0>
    2504:	48 89 ee             	mov    %rbp,%rsi
    2507:	44 89 e7             	mov    %r12d,%edi
    250a:	48 8d 15 34 3b 00 00 	lea    0x3b34(%rip),%rdx        # 6045 <_IO_stdin_used@@Base+0x45>
    2511:	e8 ea fb ff ff       	callq  2100 <getopt_long@plt>
    2516:	83 f8 ff             	cmp    $0xffffffff,%eax
    2519:	74 54                	je     256f <__cxa_finalize@plt+0x26f>
    251b:	3d 7d ff ff ff       	cmp    $0xffffff7d,%eax
    2520:	75 b6                	jne    24d8 <__cxa_finalize@plt+0x1d8>
    2522:	83 3d e7 7a 00 00 01 	cmpl   $0x1,0x7ae7(%rip)        # a010 <uname_mode@@Base>
    2529:	48 8d 05 da 3a 00 00 	lea    0x3ada(%rip),%rax        # 600a <_IO_stdin_used@@Base+0xa>
    2530:	48 8d 35 cd 3a 00 00 	lea    0x3acd(%rip),%rsi        # 6004 <_IO_stdin_used@@Base+0x4>
    2537:	48 8b 3d 6a 7b 00 00 	mov    0x7b6a(%rip),%rdi        # a0a8 <stdout@@GLIBC_2.2.5>
    253e:	48 0f 45 f0          	cmovne %rax,%rsi
    2542:	50                   	push   %rax
    2543:	31 c0                	xor    %eax,%eax
    2545:	48 8b 0d cc 7a 00 00 	mov    0x7acc(%rip),%rcx        # a018 <Version@@Base>
    254c:	6a 00                	pushq  $0x0
    254e:	4c 8d 0d 90 3b 00 00 	lea    0x3b90(%rip),%r9        # 60e5 <_IO_stdin_used@@Base+0xe5>
    2555:	4c 8d 05 93 3b 00 00 	lea    0x3b93(%rip),%r8        # 60ef <_IO_stdin_used@@Base+0xef>
    255c:	48 8d 15 57 3b 00 00 	lea    0x3b57(%rip),%rdx        # 60ba <_IO_stdin_used@@Base+0xba>
    2563:	e8 28 2b 00 00       	callq  5090 <__cxa_finalize@plt+0x2d90>
    2568:	31 ff                	xor    %edi,%edi
    256a:	e8 21 fd ff ff       	callq  2290 <exit@plt>
    256f:	48 63 05 3a 7b 00 00 	movslq 0x7b3a(%rip),%rax        # a0b0 <optind@@GLIBC_2.2.5>
    2576:	41 39 c4             	cmp    %eax,%r12d
    2579:	0f 85 5f 02 00 00    	jne    27de <__cxa_finalize@plt+0x4de>
    257f:	48 89 e5             	mov    %rsp,%rbp
    2582:	48 89 ef             	mov    %rbp,%rdi
    2585:	e8 b6 fb ff ff       	callq  2140 <uname@plt>
    258a:	83 c0 01             	add    $0x1,%eax
    258d:	74 37                	je     25c6 <__cxa_finalize@plt+0x2c6>
    258f:	bb 10 00 00 00       	mov    $0x10,%ebx
    2594:	e9 51 01 00 00       	jmpq   26ea <__cxa_finalize@plt+0x3ea>
    2599:	48 63 05 10 7b 00 00 	movslq 0x7b10(%rip),%rax        # a0b0 <optind@@GLIBC_2.2.5>
    25a0:	41 39 c4             	cmp    %eax,%r12d
    25a3:	0f 85 35 02 00 00    	jne    27de <__cxa_finalize@plt+0x4de>
    25a9:	85 db                	test   %ebx,%ebx
    25ab:	75 45                	jne    25f2 <__cxa_finalize@plt+0x2f2>
    25ad:	48 89 e5             	mov    %rsp,%rbp
    25b0:	bb 01 00 00 00       	mov    $0x1,%ebx
    25b5:	48 89 ef             	mov    %rbp,%rdi
    25b8:	e8 83 fb ff ff       	callq  2140 <uname@plt>
    25bd:	83 c0 01             	add    $0x1,%eax
    25c0:	0f 85 13 01 00 00    	jne    26d9 <__cxa_finalize@plt+0x3d9>
    25c6:	ba 05 00 00 00       	mov    $0x5,%edx
    25cb:	48 8d 35 48 3b 00 00 	lea    0x3b48(%rip),%rsi        # 611a <_IO_stdin_used@@Base+0x11a>
    25d2:	31 ff                	xor    %edi,%edi
    25d4:	e8 e7 fa ff ff       	callq  20c0 <dcgettext@plt>
    25d9:	48 89 c3             	mov    %rax,%rbx
    25dc:	e8 6f fa ff ff       	callq  2050 <__errno_location@plt>
    25e1:	48 89 da             	mov    %rbx,%rdx
    25e4:	bf 01 00 00 00       	mov    $0x1,%edi
    25e9:	8b 30                	mov    (%rax),%esi
    25eb:	31 c0                	xor    %eax,%eax
    25ed:	e8 5e fc ff ff       	callq  2250 <error@plt>
    25f2:	f6 c3 1f             	test   $0x1f,%bl
    25f5:	0f 85 c5 00 00 00    	jne    26c0 <__cxa_finalize@plt+0x3c0>
    25fb:	f6 c3 20             	test   $0x20,%bl
    25fe:	75 5d                	jne    265d <__cxa_finalize@plt+0x35d>
    2600:	f6 c3 40             	test   $0x40,%bl
    2603:	0f 85 9b 00 00 00    	jne    26a4 <__cxa_finalize@plt+0x3a4>
    2609:	80 e3 80             	and    $0x80,%bl
    260c:	0f 85 81 00 00 00    	jne    2693 <__cxa_finalize@plt+0x393>
    2612:	48 8b 3d 8f 7a 00 00 	mov    0x7a8f(%rip),%rdi        # a0a8 <stdout@@GLIBC_2.2.5>
    2619:	48 8b 47 28          	mov    0x28(%rdi),%rax
    261d:	48 3b 47 30          	cmp    0x30(%rdi),%rax
    2621:	0f 83 8b 01 00 00    	jae    27b2 <__cxa_finalize@plt+0x4b2>
    2627:	48 8d 50 01          	lea    0x1(%rax),%rdx
    262b:	48 89 57 28          	mov    %rdx,0x28(%rdi)
    262f:	c6 00 0a             	movb   $0xa,(%rax)
    2632:	31 c0                	xor    %eax,%eax
    2634:	48 8b 8c 24 98 05 00 	mov    0x598(%rsp),%rcx
    263b:	00 
    263c:	64 48 33 0c 25 28 00 	xor    %fs:0x28,%rcx
    2643:	00 00 
    2645:	0f 85 ce 01 00 00    	jne    2819 <__cxa_finalize@plt+0x519>
    264b:	48 81 c4 a8 05 00 00 	add    $0x5a8,%rsp
    2652:	5b                   	pop    %rbx
    2653:	5d                   	pop    %rbp
    2654:	41 5c                	pop    %r12
    2656:	41 5d                	pop    %r13
    2658:	41 5e                	pop    %r14
    265a:	41 5f                	pop    %r15
    265c:	c3                   	retq   
    265d:	48 89 e5             	mov    %rsp,%rbp
    2660:	48 89 ef             	mov    %rbp,%rdi
    2663:	4c 8d a5 04 01 00 00 	lea    0x104(%rbp),%r12
    266a:	e8 d1 fa ff ff       	callq  2140 <uname@plt>
    266f:	48 8d 35 bb 3a 00 00 	lea    0x3abb(%rip),%rsi        # 6131 <_IO_stdin_used@@Base+0x131>
    2676:	4c 89 e7             	mov    %r12,%rdi
    2679:	e8 22 fb ff ff       	callq  21a0 <strcmp@plt>
    267e:	85 c0                	test   %eax,%eax
    2680:	0f 84 90 00 00 00    	je     2716 <__cxa_finalize@plt+0x416>
    2686:	4c 89 e7             	mov    %r12,%rdi
    2689:	e8 82 02 00 00       	callq  2910 <__cxa_finalize@plt+0x610>
    268e:	e9 6d ff ff ff       	jmpq   2600 <__cxa_finalize@plt+0x300>
    2693:	48 8d 3d c1 3a 00 00 	lea    0x3ac1(%rip),%rdi        # 615b <_IO_stdin_used@@Base+0x15b>
    269a:	e8 71 02 00 00       	callq  2910 <__cxa_finalize@plt+0x610>
    269f:	e9 6e ff ff ff       	jmpq   2612 <__cxa_finalize@plt+0x312>
    26a4:	48 89 e5             	mov    %rsp,%rbp
    26a7:	48 89 ef             	mov    %rbp,%rdi
    26aa:	e8 91 fa ff ff       	callq  2140 <uname@plt>
    26af:	48 8d bd 04 01 00 00 	lea    0x104(%rbp),%rdi
    26b6:	e8 55 02 00 00       	callq  2910 <__cxa_finalize@plt+0x610>
    26bb:	e9 49 ff ff ff       	jmpq   2609 <__cxa_finalize@plt+0x309>
    26c0:	48 89 e5             	mov    %rsp,%rbp
    26c3:	48 89 ef             	mov    %rbp,%rdi
    26c6:	e8 75 fa ff ff       	callq  2140 <uname@plt>
    26cb:	83 c0 01             	add    $0x1,%eax
    26ce:	0f 84 f2 fe ff ff    	je     25c6 <__cxa_finalize@plt+0x2c6>
    26d4:	f6 c3 01             	test   $0x1,%bl
    26d7:	74 08                	je     26e1 <__cxa_finalize@plt+0x3e1>
    26d9:	48 89 ef             	mov    %rbp,%rdi
    26dc:	e8 2f 02 00 00       	callq  2910 <__cxa_finalize@plt+0x610>
    26e1:	f6 c3 02             	test   $0x2,%bl
    26e4:	0f 85 ba 00 00 00    	jne    27a4 <__cxa_finalize@plt+0x4a4>
    26ea:	f6 c3 04             	test   $0x4,%bl
    26ed:	0f 85 a0 00 00 00    	jne    2793 <__cxa_finalize@plt+0x493>
    26f3:	f6 c3 08             	test   $0x8,%bl
    26f6:	0f 85 86 00 00 00    	jne    2782 <__cxa_finalize@plt+0x482>
    26fc:	f6 c3 10             	test   $0x10,%bl
    26ff:	0f 84 f6 fe ff ff    	je     25fb <__cxa_finalize@plt+0x2fb>
    2705:	48 8d bd 04 01 00 00 	lea    0x104(%rbp),%rdi
    270c:	e8 ff 01 00 00       	callq  2910 <__cxa_finalize@plt+0x610>
    2711:	e9 e5 fe ff ff       	jmpq   25fb <__cxa_finalize@plt+0x2fb>
    2716:	48 8d 35 c5 3e 00 00 	lea    0x3ec5(%rip),%rsi        # 65e2 <_IO_stdin_used@@Base+0x5e2>
    271d:	48 8d 3d 12 3a 00 00 	lea    0x3a12(%rip),%rdi        # 6136 <_IO_stdin_used@@Base+0x136>
    2724:	e8 47 fb ff ff       	callq  2270 <fopen@plt>
    2729:	4c 8d ac 24 90 01 00 	lea    0x190(%rsp),%r13
    2730:	00 
    2731:	4c 8d 3d 0c 3a 00 00 	lea    0x3a0c(%rip),%r15        # 6144 <_IO_stdin_used@@Base+0x144>
    2738:	49 89 c6             	mov    %rax,%r14
    273b:	48 85 c0             	test   %rax,%rax
    273e:	75 19                	jne    2759 <__cxa_finalize@plt+0x459>
    2740:	e9 41 ff ff ff       	jmpq   2686 <__cxa_finalize@plt+0x386>
    2745:	ba 09 00 00 00       	mov    $0x9,%edx
    274a:	4c 89 fe             	mov    %r15,%rsi
    274d:	4c 89 ef             	mov    %r13,%rdi
    2750:	e8 0b f9 ff ff       	callq  2060 <strncmp@plt>
    2755:	85 c0                	test   %eax,%eax
    2757:	74 68                	je     27c1 <__cxa_finalize@plt+0x4c1>
    2759:	4c 89 f2             	mov    %r14,%rdx
    275c:	be 00 04 00 00       	mov    $0x400,%esi
    2761:	4c 89 ef             	mov    %r13,%rdi
    2764:	e8 67 fa ff ff       	callq  21d0 <fgets_unlocked@plt>
    2769:	48 85 c0             	test   %rax,%rax
    276c:	75 d7                	jne    2745 <__cxa_finalize@plt+0x445>
    276e:	4c 8d a5 04 01 00 00 	lea    0x104(%rbp),%r12
    2775:	4c 89 f7             	mov    %r14,%rdi
    2778:	e8 03 2d 00 00       	callq  5480 <__cxa_finalize@plt+0x3180>
    277d:	e9 04 ff ff ff       	jmpq   2686 <__cxa_finalize@plt+0x386>
    2782:	48 8d bd c3 00 00 00 	lea    0xc3(%rbp),%rdi
    2789:	e8 82 01 00 00       	callq  2910 <__cxa_finalize@plt+0x610>
    278e:	e9 69 ff ff ff       	jmpq   26fc <__cxa_finalize@plt+0x3fc>
    2793:	48 8d bd 82 00 00 00 	lea    0x82(%rbp),%rdi
    279a:	e8 71 01 00 00       	callq  2910 <__cxa_finalize@plt+0x610>
    279f:	e9 4f ff ff ff       	jmpq   26f3 <__cxa_finalize@plt+0x3f3>
    27a4:	48 8d 7d 41          	lea    0x41(%rbp),%rdi
    27a8:	e8 63 01 00 00       	callq  2910 <__cxa_finalize@plt+0x610>
    27ad:	e9 38 ff ff ff       	jmpq   26ea <__cxa_finalize@plt+0x3ea>
    27b2:	be 0a 00 00 00       	mov    $0xa,%esi
    27b7:	e8 64 f9 ff ff       	callq  2120 <__overflow@plt>
    27bc:	e9 71 fe ff ff       	jmpq   2632 <__cxa_finalize@plt+0x332>
    27c1:	48 8d 35 86 39 00 00 	lea    0x3986(%rip),%rsi        # 614e <_IO_stdin_used@@Base+0x14e>
    27c8:	4c 89 ef             	mov    %r13,%rdi
    27cb:	4c 8d 25 fa 38 00 00 	lea    0x38fa(%rip),%r12        # 60cc <_IO_stdin_used@@Base+0xcc>
    27d2:	e8 09 fb ff ff       	callq  22e0 <strstr@plt>
    27d7:	48 85 c0             	test   %rax,%rax
    27da:	75 99                	jne    2775 <__cxa_finalize@plt+0x475>
    27dc:	eb 90                	jmp    276e <__cxa_finalize@plt+0x46e>
    27de:	48 8b 7c c5 00       	mov    0x0(%rbp,%rax,8),%rdi
    27e3:	e8 c8 23 00 00       	callq  4bb0 <__cxa_finalize@plt+0x28b0>
    27e8:	ba 05 00 00 00       	mov    $0x5,%edx
    27ed:	48 8d 35 15 39 00 00 	lea    0x3915(%rip),%rsi        # 6109 <_IO_stdin_used@@Base+0x109>
    27f4:	31 ff                	xor    %edi,%edi
    27f6:	48 89 c3             	mov    %rax,%rbx
    27f9:	e8 c2 f8 ff ff       	callq  20c0 <dcgettext@plt>
    27fe:	48 89 d9             	mov    %rbx,%rcx
    2801:	31 f6                	xor    %esi,%esi
    2803:	31 ff                	xor    %edi,%edi
    2805:	48 89 c2             	mov    %rax,%rdx
    2808:	31 c0                	xor    %eax,%eax
    280a:	e8 41 fa ff ff       	callq  2250 <error@plt>
    280f:	bf 01 00 00 00       	mov    $0x1,%edi
    2814:	e8 47 01 00 00       	callq  2960 <__cxa_finalize@plt+0x660>
    2819:	e8 d2 f8 ff ff       	callq  20f0 <__stack_chk_fail@plt>
    281e:	66 90                	xchg   %ax,%ax
    2820:	31 ed                	xor    %ebp,%ebp
    2822:	49 89 d1             	mov    %rdx,%r9
    2825:	5e                   	pop    %rsi
    2826:	48 89 e2             	mov    %rsp,%rdx
    2829:	48 83 e4 f0          	and    $0xfffffffffffffff0,%rsp
    282d:	50                   	push   %rax
    282e:	54                   	push   %rsp
    282f:	4c 8d 05 5a 2f 00 00 	lea    0x2f5a(%rip),%r8        # 5790 <__cxa_finalize@plt+0x3490>
    2836:	48 8d 0d f3 2e 00 00 	lea    0x2ef3(%rip),%rcx        # 5730 <__cxa_finalize@plt+0x3430>
    283d:	48 8d 3d ec fa ff ff 	lea    -0x514(%rip),%rdi        # 2330 <__cxa_finalize@plt+0x30>
    2844:	ff 15 86 77 00 00    	callq  *0x7786(%rip)        # 9fd0 <__libc_start_main@GLIBC_2.2.5>
    284a:	f4                   	hlt    
    284b:	0f 1f 44 00 00       	nopl   0x0(%rax,%rax,1)
    2850:	48 8d 3d 49 78 00 00 	lea    0x7849(%rip),%rdi        # a0a0 <__progname@@GLIBC_2.2.5>
    2857:	48 8d 05 42 78 00 00 	lea    0x7842(%rip),%rax        # a0a0 <__progname@@GLIBC_2.2.5>
    285e:	48 39 f8             	cmp    %rdi,%rax
    2861:	74 15                	je     2878 <__cxa_finalize@plt+0x578>
    2863:	48 8b 05 5e 77 00 00 	mov    0x775e(%rip),%rax        # 9fc8 <_ITM_deregisterTMCloneTable>
    286a:	48 85 c0             	test   %rax,%rax
    286d:	74 09                	je     2878 <__cxa_finalize@plt+0x578>
    286f:	ff e0                	jmpq   *%rax
    2871:	0f 1f 80 00 00 00 00 	nopl   0x0(%rax)
    2878:	c3                   	retq   
    2879:	0f 1f 80 00 00 00 00 	nopl   0x0(%rax)
    2880:	48 8d 3d 19 78 00 00 	lea    0x7819(%rip),%rdi        # a0a0 <__progname@@GLIBC_2.2.5>
    2887:	48 8d 35 12 78 00 00 	lea    0x7812(%rip),%rsi        # a0a0 <__progname@@GLIBC_2.2.5>
    288e:	48 29 fe             	sub    %rdi,%rsi
    2891:	48 c1 fe 03          	sar    $0x3,%rsi
    2895:	48 89 f0             	mov    %rsi,%rax
    2898:	48 c1 e8 3f          	shr    $0x3f,%rax
    289c:	48 01 c6             	add    %rax,%rsi
    289f:	48 d1 fe             	sar    %rsi
    28a2:	74 14                	je     28b8 <__cxa_finalize@plt+0x5b8>
    28a4:	48 8b 05 35 77 00 00 	mov    0x7735(%rip),%rax        # 9fe0 <_ITM_registerTMCloneTable>
    28ab:	48 85 c0             	test   %rax,%rax
    28ae:	74 08                	je     28b8 <__cxa_finalize@plt+0x5b8>
    28b0:	ff e0                	jmpq   *%rax
    28b2:	66 0f 1f 44 00 00    	nopw   0x0(%rax,%rax,1)
    28b8:	c3                   	retq   
    28b9:	0f 1f 80 00 00 00 00 	nopl   0x0(%rax)
    28c0:	80 3d 01 78 00 00 00 	cmpb   $0x0,0x7801(%rip)        # a0c8 <stderr@@GLIBC_2.2.5+0x8>
    28c7:	75 2f                	jne    28f8 <__cxa_finalize@plt+0x5f8>
    28c9:	55                   	push   %rbp
    28ca:	48 83 3d 16 77 00 00 	cmpq   $0x0,0x7716(%rip)        # 9fe8 <__cxa_finalize@GLIBC_2.2.5>
    28d1:	00 
    28d2:	48 89 e5             	mov    %rsp,%rbp
    28d5:	74 0c                	je     28e3 <__cxa_finalize@plt+0x5e3>
    28d7:	48 8b 3d 2a 77 00 00 	mov    0x772a(%rip),%rdi        # a008 <quoting_style_args@@Base+0x408>
    28de:	e8 1d fa ff ff       	callq  2300 <__cxa_finalize@plt>
    28e3:	e8 68 ff ff ff       	callq  2850 <__cxa_finalize@plt+0x550>
    28e8:	c6 05 d9 77 00 00 01 	movb   $0x1,0x77d9(%rip)        # a0c8 <stderr@@GLIBC_2.2.5+0x8>
    28ef:	5d                   	pop    %rbp
    28f0:	c3                   	retq   
    28f1:	0f 1f 80 00 00 00 00 	nopl   0x0(%rax)
    28f8:	c3                   	retq   
    28f9:	0f 1f 80 00 00 00 00 	nopl   0x0(%rax)
    2900:	e9 7b ff ff ff       	jmpq   2880 <__cxa_finalize@plt+0x580>
    2905:	66 2e 0f 1f 84 00 00 	nopw   %cs:0x0(%rax,%rax,1)
    290c:	00 00 00 
    290f:	90                   	nop
    2910:	80 3d b2 77 00 00 00 	cmpb   $0x0,0x77b2(%rip)        # a0c9 <stderr@@GLIBC_2.2.5+0x9>
    2917:	53                   	push   %rbx
    2918:	48 89 fb             	mov    %rdi,%rbx
    291b:	74 1c                	je     2939 <__cxa_finalize@plt+0x639>
    291d:	48 8b 3d 84 77 00 00 	mov    0x7784(%rip),%rdi        # a0a8 <stdout@@GLIBC_2.2.5>
    2924:	48 8b 47 28          	mov    0x28(%rdi),%rax
    2928:	48 3b 47 30          	cmp    0x30(%rdi),%rax
    292c:	73 22                	jae    2950 <__cxa_finalize@plt+0x650>
    292e:	48 8d 50 01          	lea    0x1(%rax),%rdx
    2932:	48 89 57 28          	mov    %rdx,0x28(%rdi)
    2936:	c6 00 20             	movb   $0x20,(%rax)
    2939:	48 8b 35 68 77 00 00 	mov    0x7768(%rip),%rsi        # a0a8 <stdout@@GLIBC_2.2.5>
    2940:	48 89 df             	mov    %rbx,%rdi
    2943:	5b                   	pop    %rbx
    2944:	c6 05 7e 77 00 00 01 	movb   $0x1,0x777e(%rip)        # a0c9 <stderr@@GLIBC_2.2.5+0x9>
    294b:	e9 30 f8 ff ff       	jmpq   2180 <fputs_unlocked@plt>
    2950:	be 20 00 00 00       	mov    $0x20,%esi
    2955:	e8 c6 f7 ff ff       	callq  2120 <__overflow@plt>
    295a:	eb dd                	jmp    2939 <__cxa_finalize@plt+0x639>
    295c:	0f 1f 40 00          	nopl   0x0(%rax)
    2960:	41 54                	push   %r12
    2962:	ba 05 00 00 00       	mov    $0x5,%edx
    2967:	41 89 fc             	mov    %edi,%r12d
    296a:	55                   	push   %rbp
    296b:	53                   	push   %rbx
    296c:	48 83 c4 80          	add    $0xffffffffffffff80,%rsp
    2970:	48 8b 1d 69 77 00 00 	mov    0x7769(%rip),%rbx        # a0e0 <program_name@@Base>
    2977:	64 48 8b 04 25 28 00 	mov    %fs:0x28,%rax
    297e:	00 00 
    2980:	48 89 44 24 78       	mov    %rax,0x78(%rsp)
    2985:	31 c0                	xor    %eax,%eax
    2987:	85 ff                	test   %edi,%edi
    2989:	74 2f                	je     29ba <__cxa_finalize@plt+0x6ba>
    298b:	48 8d 35 4e 38 00 00 	lea    0x384e(%rip),%rsi        # 61e0 <_IO_stdin_used@@Base+0x1e0>
    2992:	31 ff                	xor    %edi,%edi
    2994:	e8 27 f7 ff ff       	callq  20c0 <dcgettext@plt>
    2999:	48 8b 3d 20 77 00 00 	mov    0x7720(%rip),%rdi        # a0c0 <stderr@@GLIBC_2.2.5>
    29a0:	48 89 d9             	mov    %rbx,%rcx
    29a3:	be 01 00 00 00       	mov    $0x1,%esi
    29a8:	48 89 c2             	mov    %rax,%rdx
    29ab:	31 c0                	xor    %eax,%eax
    29ad:	e8 fe f8 ff ff       	callq  22b0 <__fprintf_chk@plt>
    29b2:	44 89 e7             	mov    %r12d,%edi
    29b5:	e8 d6 f8 ff ff       	callq  2290 <exit@plt>
    29ba:	31 ff                	xor    %edi,%edi
    29bc:	48 8d 35 4e 36 00 00 	lea    0x364e(%rip),%rsi        # 6011 <_IO_stdin_used@@Base+0x11>
    29c3:	e8 f8 f6 ff ff       	callq  20c0 <dcgettext@plt>
    29c8:	48 89 da             	mov    %rbx,%rdx
    29cb:	bf 01 00 00 00       	mov    $0x1,%edi
    29d0:	48 89 c6             	mov    %rax,%rsi
    29d3:	31 c0                	xor    %eax,%eax
    29d5:	e8 66 f8 ff ff       	callq  2240 <__printf_chk@plt>
    29da:	83 3d 2f 76 00 00 01 	cmpl   $0x1,0x762f(%rip)        # a010 <uname_mode@@Base>
    29e1:	48 8b 1d c0 76 00 00 	mov    0x76c0(%rip),%rbx        # a0a8 <stdout@@GLIBC_2.2.5>
    29e8:	ba 05 00 00 00       	mov    $0x5,%edx
    29ed:	48 8d 35 34 36 00 00 	lea    0x3634(%rip),%rsi        # 6028 <_IO_stdin_used@@Base+0x28>
    29f4:	0f 84 f6 01 00 00    	je     2bf0 <__cxa_finalize@plt+0x8f0>
    29fa:	31 ff                	xor    %edi,%edi
    29fc:	48 8d 2d 01 36 00 00 	lea    0x3601(%rip),%rbp        # 6004 <_IO_stdin_used@@Base+0x4>
    2a03:	e8 b8 f6 ff ff       	callq  20c0 <dcgettext@plt>
    2a08:	48 89 de             	mov    %rbx,%rsi
    2a0b:	48 89 c7             	mov    %rax,%rdi
    2a0e:	e8 6d f7 ff ff       	callq  2180 <fputs_unlocked@plt>
    2a13:	48 8b 1d 8e 76 00 00 	mov    0x768e(%rip),%rbx        # a0a8 <stdout@@GLIBC_2.2.5>
    2a1a:	31 ff                	xor    %edi,%edi
    2a1c:	ba 05 00 00 00       	mov    $0x5,%edx
    2a21:	48 8d 35 80 3a 00 00 	lea    0x3a80(%rip),%rsi        # 64a8 <_IO_stdin_used@@Base+0x4a8>
    2a28:	e8 93 f6 ff ff       	callq  20c0 <dcgettext@plt>
    2a2d:	48 89 de             	mov    %rbx,%rsi
    2a30:	48 89 c7             	mov    %rax,%rdi
    2a33:	e8 48 f7 ff ff       	callq  2180 <fputs_unlocked@plt>
    2a38:	48 8b 1d 69 76 00 00 	mov    0x7669(%rip),%rbx        # a0a8 <stdout@@GLIBC_2.2.5>
    2a3f:	31 ff                	xor    %edi,%edi
    2a41:	ba 05 00 00 00       	mov    $0x5,%edx
    2a46:	48 8d 35 8b 3a 00 00 	lea    0x3a8b(%rip),%rsi        # 64d8 <_IO_stdin_used@@Base+0x4d8>
    2a4d:	e8 6e f6 ff ff       	callq  20c0 <dcgettext@plt>
    2a52:	48 89 de             	mov    %rbx,%rsi
    2a55:	48 89 e3             	mov    %rsp,%rbx
    2a58:	48 89 c7             	mov    %rax,%rdi
    2a5b:	e8 20 f7 ff ff       	callq  2180 <fputs_unlocked@plt>
    2a60:	48 8d 05 a3 35 00 00 	lea    0x35a3(%rip),%rax        # 600a <_IO_stdin_used@@Base+0xa>
    2a67:	83 3d a2 75 00 00 01 	cmpl   $0x1,0x75a2(%rip)        # a010 <uname_mode@@Base>
    2a6e:	48 8d 0d 10 36 00 00 	lea    0x3610(%rip),%rcx        # 6085 <_IO_stdin_used@@Base+0x85>
    2a75:	48 0f 45 e8          	cmovne %rax,%rbp
    2a79:	48 8d 05 c6 35 00 00 	lea    0x35c6(%rip),%rax        # 6046 <_IO_stdin_used@@Base+0x46>
    2a80:	48 89 4c 24 30       	mov    %rcx,0x30(%rsp)
    2a85:	48 8d 0d 03 36 00 00 	lea    0x3603(%rip),%rcx        # 608f <_IO_stdin_used@@Base+0x8f>
    2a8c:	48 89 44 24 08       	mov    %rax,0x8(%rsp)
    2a91:	48 8d 05 26 36 00 00 	lea    0x3626(%rip),%rax        # 60be <_IO_stdin_used@@Base+0xbe>
    2a98:	48 8d 35 70 35 00 00 	lea    0x3570(%rip),%rsi        # 600f <_IO_stdin_used@@Base+0xf>
    2a9f:	48 89 44 24 10       	mov    %rax,0x10(%rsp)
    2aa4:	48 8d 05 ab 35 00 00 	lea    0x35ab(%rip),%rax        # 6056 <_IO_stdin_used@@Base+0x56>
    2aab:	48 89 44 24 18       	mov    %rax,0x18(%rsp)
    2ab0:	48 8d 05 b5 35 00 00 	lea    0x35b5(%rip),%rax        # 606c <_IO_stdin_used@@Base+0x6c>
    2ab7:	48 89 44 24 20       	mov    %rax,0x20(%rsp)
    2abc:	48 8d 05 b3 35 00 00 	lea    0x35b3(%rip),%rax        # 6076 <_IO_stdin_used@@Base+0x76>
    2ac3:	48 89 4c 24 40       	mov    %rcx,0x40(%rsp)
    2ac8:	48 8d 0d ca 35 00 00 	lea    0x35ca(%rip),%rcx        # 6099 <_IO_stdin_used@@Base+0x99>
    2acf:	48 89 34 24          	mov    %rsi,(%rsp)
    2ad3:	48 89 44 24 28       	mov    %rax,0x28(%rsp)
    2ad8:	48 89 44 24 38       	mov    %rax,0x38(%rsp)
    2add:	48 89 44 24 48       	mov    %rax,0x48(%rsp)
    2ae2:	48 89 4c 24 50       	mov    %rcx,0x50(%rsp)
    2ae7:	48 89 44 24 58       	mov    %rax,0x58(%rsp)
    2aec:	48 c7 44 24 60 00 00 	movq   $0x0,0x60(%rsp)
    2af3:	00 00 
    2af5:	48 c7 44 24 68 00 00 	movq   $0x0,0x68(%rsp)
    2afc:	00 00 
    2afe:	eb 0c                	jmp    2b0c <__cxa_finalize@plt+0x80c>
    2b00:	48 83 c3 10          	add    $0x10,%rbx
    2b04:	48 8b 33             	mov    (%rbx),%rsi
    2b07:	48 85 f6             	test   %rsi,%rsi
    2b0a:	74 0c                	je     2b18 <__cxa_finalize@plt+0x818>
    2b0c:	48 89 ef             	mov    %rbp,%rdi
    2b0f:	e8 8c f6 ff ff       	callq  21a0 <strcmp@plt>
    2b14:	85 c0                	test   %eax,%eax
    2b16:	75 e8                	jne    2b00 <__cxa_finalize@plt+0x800>
    2b18:	48 8b 5b 08          	mov    0x8(%rbx),%rbx
    2b1c:	ba 05 00 00 00       	mov    $0x5,%edx
    2b21:	48 8d 35 7b 35 00 00 	lea    0x357b(%rip),%rsi        # 60a3 <_IO_stdin_used@@Base+0xa3>
    2b28:	31 ff                	xor    %edi,%edi
    2b2a:	48 85 db             	test   %rbx,%rbx
    2b2d:	0f 84 ee 00 00 00    	je     2c21 <__cxa_finalize@plt+0x921>
    2b33:	e8 88 f5 ff ff       	callq  20c0 <dcgettext@plt>
    2b38:	bf 01 00 00 00       	mov    $0x1,%edi
    2b3d:	48 8d 0d cc 39 00 00 	lea    0x39cc(%rip),%rcx        # 6510 <_IO_stdin_used@@Base+0x510>
    2b44:	48 8d 15 6f 35 00 00 	lea    0x356f(%rip),%rdx        # 60ba <_IO_stdin_used@@Base+0xba>
    2b4b:	48 89 c6             	mov    %rax,%rsi
    2b4e:	31 c0                	xor    %eax,%eax
    2b50:	e8 eb f6 ff ff       	callq  2240 <__printf_chk@plt>
    2b55:	31 f6                	xor    %esi,%esi
    2b57:	bf 05 00 00 00       	mov    $0x5,%edi
    2b5c:	e8 cf f6 ff ff       	callq  2230 <setlocale@plt>
    2b61:	48 85 c0             	test   %rax,%rax
    2b64:	74 1c                	je     2b82 <__cxa_finalize@plt+0x882>
    2b66:	ba 03 00 00 00       	mov    $0x3,%edx
    2b6b:	48 8d 35 56 35 00 00 	lea    0x3556(%rip),%rsi        # 60c8 <_IO_stdin_used@@Base+0xc8>
    2b72:	48 89 c7             	mov    %rax,%rdi
    2b75:	e8 e6 f4 ff ff       	callq  2060 <strncmp@plt>
    2b7a:	85 c0                	test   %eax,%eax
    2b7c:	0f 85 28 01 00 00    	jne    2caa <__cxa_finalize@plt+0x9aa>
    2b82:	31 ff                	xor    %edi,%edi
    2b84:	ba 05 00 00 00       	mov    $0x5,%edx
    2b89:	48 8d 35 f0 39 00 00 	lea    0x39f0(%rip),%rsi        # 6580 <_IO_stdin_used@@Base+0x580>
    2b90:	e8 2b f5 ff ff       	callq  20c0 <dcgettext@plt>
    2b95:	48 89 e9             	mov    %rbp,%rcx
    2b98:	bf 01 00 00 00       	mov    $0x1,%edi
    2b9d:	48 8d 15 6c 39 00 00 	lea    0x396c(%rip),%rdx        # 6510 <_IO_stdin_used@@Base+0x510>
    2ba4:	48 89 c6             	mov    %rax,%rsi
    2ba7:	31 c0                	xor    %eax,%eax
    2ba9:	e8 92 f6 ff ff       	callq  2240 <__printf_chk@plt>
    2bae:	48 39 dd             	cmp    %rbx,%rbp
    2bb1:	48 8d 0d 8d 34 00 00 	lea    0x348d(%rip),%rcx        # 6045 <_IO_stdin_used@@Base+0x45>
    2bb8:	48 8d 2d a1 34 00 00 	lea    0x34a1(%rip),%rbp        # 6060 <_IO_stdin_used@@Base+0x60>
    2bbf:	48 0f 45 e9          	cmovne %rcx,%rbp
    2bc3:	31 ff                	xor    %edi,%edi
    2bc5:	48 8d 35 d4 39 00 00 	lea    0x39d4(%rip),%rsi        # 65a0 <_IO_stdin_used@@Base+0x5a0>
    2bcc:	ba 05 00 00 00       	mov    $0x5,%edx
    2bd1:	e8 ea f4 ff ff       	callq  20c0 <dcgettext@plt>
    2bd6:	48 89 e9             	mov    %rbp,%rcx
    2bd9:	48 89 da             	mov    %rbx,%rdx
    2bdc:	bf 01 00 00 00       	mov    $0x1,%edi
    2be1:	48 89 c6             	mov    %rax,%rsi
    2be4:	31 c0                	xor    %eax,%eax
    2be6:	e8 55 f6 ff ff       	callq  2240 <__printf_chk@plt>
    2beb:	e9 c2 fd ff ff       	jmpq   29b2 <__cxa_finalize@plt+0x6b2>
    2bf0:	48 8d 35 11 36 00 00 	lea    0x3611(%rip),%rsi        # 6208 <_IO_stdin_used@@Base+0x208>
    2bf7:	31 ff                	xor    %edi,%edi
    2bf9:	e8 c2 f4 ff ff       	callq  20c0 <dcgettext@plt>
    2bfe:	48 89 de             	mov    %rbx,%rsi
    2c01:	48 89 c7             	mov    %rax,%rdi
    2c04:	e8 77 f5 ff ff       	callq  2180 <fputs_unlocked@plt>
    2c09:	48 8b 1d 98 74 00 00 	mov    0x7498(%rip),%rbx        # a0a8 <stdout@@GLIBC_2.2.5>
    2c10:	ba 05 00 00 00       	mov    $0x5,%edx
    2c15:	48 8d 35 5c 37 00 00 	lea    0x375c(%rip),%rsi        # 6378 <_IO_stdin_used@@Base+0x378>
    2c1c:	e9 d9 fd ff ff       	jmpq   29fa <__cxa_finalize@plt+0x6fa>
    2c21:	e8 9a f4 ff ff       	callq  20c0 <dcgettext@plt>
    2c26:	bf 01 00 00 00       	mov    $0x1,%edi
    2c2b:	48 8d 0d de 38 00 00 	lea    0x38de(%rip),%rcx        # 6510 <_IO_stdin_used@@Base+0x510>
    2c32:	48 8d 15 81 34 00 00 	lea    0x3481(%rip),%rdx        # 60ba <_IO_stdin_used@@Base+0xba>
    2c39:	48 89 c6             	mov    %rax,%rsi
    2c3c:	31 c0                	xor    %eax,%eax
    2c3e:	e8 fd f5 ff ff       	callq  2240 <__printf_chk@plt>
    2c43:	31 f6                	xor    %esi,%esi
    2c45:	bf 05 00 00 00       	mov    $0x5,%edi
    2c4a:	e8 e1 f5 ff ff       	callq  2230 <setlocale@plt>
    2c4f:	48 85 c0             	test   %rax,%rax
    2c52:	74 18                	je     2c6c <__cxa_finalize@plt+0x96c>
    2c54:	ba 03 00 00 00       	mov    $0x3,%edx
    2c59:	48 8d 35 68 34 00 00 	lea    0x3468(%rip),%rsi        # 60c8 <_IO_stdin_used@@Base+0xc8>
    2c60:	48 89 c7             	mov    %rax,%rdi
    2c63:	e8 f8 f3 ff ff       	callq  2060 <strncmp@plt>
    2c68:	85 c0                	test   %eax,%eax
    2c6a:	75 3b                	jne    2ca7 <__cxa_finalize@plt+0x9a7>
    2c6c:	ba 05 00 00 00       	mov    $0x5,%edx
    2c71:	48 8d 35 08 39 00 00 	lea    0x3908(%rip),%rsi        # 6580 <_IO_stdin_used@@Base+0x580>
    2c78:	31 ff                	xor    %edi,%edi
    2c7a:	48 89 eb             	mov    %rbp,%rbx
    2c7d:	e8 3e f4 ff ff       	callq  20c0 <dcgettext@plt>
    2c82:	48 89 e9             	mov    %rbp,%rcx
    2c85:	bf 01 00 00 00       	mov    $0x1,%edi
    2c8a:	48 8d 15 7f 38 00 00 	lea    0x387f(%rip),%rdx        # 6510 <_IO_stdin_used@@Base+0x510>
    2c91:	48 89 c6             	mov    %rax,%rsi
    2c94:	31 c0                	xor    %eax,%eax
    2c96:	48 8d 2d c3 33 00 00 	lea    0x33c3(%rip),%rbp        # 6060 <_IO_stdin_used@@Base+0x60>
    2c9d:	e8 9e f5 ff ff       	callq  2240 <__printf_chk@plt>
    2ca2:	e9 1c ff ff ff       	jmpq   2bc3 <__cxa_finalize@plt+0x8c3>
    2ca7:	48 89 eb             	mov    %rbp,%rbx
    2caa:	31 ff                	xor    %edi,%edi
    2cac:	ba 05 00 00 00       	mov    $0x5,%edx
    2cb1:	48 8d 35 80 38 00 00 	lea    0x3880(%rip),%rsi        # 6538 <_IO_stdin_used@@Base+0x538>
    2cb8:	e8 03 f4 ff ff       	callq  20c0 <dcgettext@plt>
    2cbd:	48 89 ea             	mov    %rbp,%rdx
    2cc0:	bf 01 00 00 00       	mov    $0x1,%edi
    2cc5:	48 89 c6             	mov    %rax,%rsi
    2cc8:	31 c0                	xor    %eax,%eax
    2cca:	e8 71 f5 ff ff       	callq  2240 <__printf_chk@plt>
    2ccf:	e9 ae fe ff ff       	jmpq   2b82 <__cxa_finalize@plt+0x882>
    2cd4:	66 2e 0f 1f 84 00 00 	nopw   %cs:0x0(%rax,%rax,1)
    2cdb:	00 00 00 
    2cde:	66 90                	xchg   %ax,%ax
    2ce0:	48 89 3d f1 73 00 00 	mov    %rdi,0x73f1(%rip)        # a0d8 <stderr@@GLIBC_2.2.5+0x18>
    2ce7:	c3                   	retq   
    2ce8:	0f 1f 84 00 00 00 00 	nopl   0x0(%rax,%rax,1)
    2cef:	00 
    2cf0:	40 88 3d d9 73 00 00 	mov    %dil,0x73d9(%rip)        # a0d0 <stderr@@GLIBC_2.2.5+0x10>
    2cf7:	c3                   	retq   
    2cf8:	0f 1f 84 00 00 00 00 	nopl   0x0(%rax,%rax,1)
    2cff:	00 
    2d00:	55                   	push   %rbp
    2d01:	53                   	push   %rbx
    2d02:	48 83 ec 08          	sub    $0x8,%rsp
    2d06:	48 8b 3d 9b 73 00 00 	mov    0x739b(%rip),%rdi        # a0a8 <stdout@@GLIBC_2.2.5>
    2d0d:	e8 1e 29 00 00       	callq  5630 <__cxa_finalize@plt+0x3330>
    2d12:	85 c0                	test   %eax,%eax
    2d14:	74 16                	je     2d2c <__cxa_finalize@plt+0xa2c>
    2d16:	e8 35 f3 ff ff       	callq  2050 <__errno_location@plt>
    2d1b:	80 3d ae 73 00 00 00 	cmpb   $0x0,0x73ae(%rip)        # a0d0 <stderr@@GLIBC_2.2.5+0x10>
    2d22:	48 89 c3             	mov    %rax,%rbx
    2d25:	74 1c                	je     2d43 <__cxa_finalize@plt+0xa43>
    2d27:	83 38 20             	cmpl   $0x20,(%rax)
    2d2a:	75 17                	jne    2d43 <__cxa_finalize@plt+0xa43>
    2d2c:	48 8b 3d 8d 73 00 00 	mov    0x738d(%rip),%rdi        # a0c0 <stderr@@GLIBC_2.2.5>
    2d33:	e8 f8 28 00 00       	callq  5630 <__cxa_finalize@plt+0x3330>
    2d38:	85 c0                	test   %eax,%eax
    2d3a:	75 46                	jne    2d82 <__cxa_finalize@plt+0xa82>
    2d3c:	48 83 c4 08          	add    $0x8,%rsp
    2d40:	5b                   	pop    %rbx
    2d41:	5d                   	pop    %rbp
    2d42:	c3                   	retq   
    2d43:	31 ff                	xor    %edi,%edi
    2d45:	ba 05 00 00 00       	mov    $0x5,%edx
    2d4a:	48 8d 35 87 38 00 00 	lea    0x3887(%rip),%rsi        # 65d8 <_IO_stdin_used@@Base+0x5d8>
    2d51:	e8 6a f3 ff ff       	callq  20c0 <dcgettext@plt>
    2d56:	48 8b 3d 7b 73 00 00 	mov    0x737b(%rip),%rdi        # a0d8 <stderr@@GLIBC_2.2.5+0x18>
    2d5d:	48 89 c5             	mov    %rax,%rbp
    2d60:	48 85 ff             	test   %rdi,%rdi
    2d63:	74 28                	je     2d8d <__cxa_finalize@plt+0xa8d>
    2d65:	e8 36 1c 00 00       	callq  49a0 <__cxa_finalize@plt+0x26a0>
    2d6a:	8b 33                	mov    (%rbx),%esi
    2d6c:	49 89 e8             	mov    %rbp,%r8
    2d6f:	31 ff                	xor    %edi,%edi
    2d71:	48 89 c1             	mov    %rax,%rcx
    2d74:	48 8d 15 69 38 00 00 	lea    0x3869(%rip),%rdx        # 65e4 <_IO_stdin_used@@Base+0x5e4>
    2d7b:	31 c0                	xor    %eax,%eax
    2d7d:	e8 ce f4 ff ff       	callq  2250 <error@plt>
    2d82:	8b 3d 98 72 00 00    	mov    0x7298(%rip),%edi        # a020 <exit_failure@@Base>
    2d88:	e8 e3 f2 ff ff       	callq  2070 <_exit@plt>
    2d8d:	8b 33                	mov    (%rbx),%esi
    2d8f:	48 89 c1             	mov    %rax,%rcx
    2d92:	48 8d 15 4f 38 00 00 	lea    0x384f(%rip),%rdx        # 65e8 <_IO_stdin_used@@Base+0x5e8>
    2d99:	31 ff                	xor    %edi,%edi
    2d9b:	31 c0                	xor    %eax,%eax
    2d9d:	e8 ae f4 ff ff       	callq  2250 <error@plt>
    2da2:	eb de                	jmp    2d82 <__cxa_finalize@plt+0xa82>
    2da4:	66 2e 0f 1f 84 00 00 	nopw   %cs:0x0(%rax,%rax,1)
    2dab:	00 00 00 
    2dae:	66 90                	xchg   %ax,%ax
    2db0:	53                   	push   %rbx
    2db1:	48 85 ff             	test   %rdi,%rdi
    2db4:	74 77                	je     2e2d <__cxa_finalize@plt+0xb2d>
    2db6:	be 2f 00 00 00       	mov    $0x2f,%esi
    2dbb:	48 89 fb             	mov    %rdi,%rbx
    2dbe:	e8 6d f3 ff ff       	callq  2130 <strrchr@plt>
    2dc3:	48 85 c0             	test   %rax,%rax
    2dc6:	74 55                	je     2e1d <__cxa_finalize@plt+0xb1d>
    2dc8:	4c 8d 40 01          	lea    0x1(%rax),%r8
    2dcc:	4c 89 c2             	mov    %r8,%rdx
    2dcf:	48 29 da             	sub    %rbx,%rdx
    2dd2:	48 83 fa 06          	cmp    $0x6,%rdx
    2dd6:	7e 45                	jle    2e1d <__cxa_finalize@plt+0xb1d>
    2dd8:	48 8d 70 fa          	lea    -0x6(%rax),%rsi
    2ddc:	b9 07 00 00 00       	mov    $0x7,%ecx
    2de1:	48 8d 3d 40 38 00 00 	lea    0x3840(%rip),%rdi        # 6628 <_IO_stdin_used@@Base+0x628>
    2de8:	f3 a6                	repz cmpsb %es:(%rdi),%ds:(%rsi)
    2dea:	0f 97 c2             	seta   %dl
    2ded:	80 da 00             	sbb    $0x0,%dl
    2df0:	84 d2                	test   %dl,%dl
    2df2:	75 29                	jne    2e1d <__cxa_finalize@plt+0xb1d>
    2df4:	b9 03 00 00 00       	mov    $0x3,%ecx
    2df9:	48 8d 3d 30 38 00 00 	lea    0x3830(%rip),%rdi        # 6630 <_IO_stdin_used@@Base+0x630>
    2e00:	4c 89 c6             	mov    %r8,%rsi
    2e03:	4c 89 c3             	mov    %r8,%rbx
    2e06:	f3 a6                	repz cmpsb %es:(%rdi),%ds:(%rsi)
    2e08:	0f 97 c2             	seta   %dl
    2e0b:	80 da 00             	sbb    $0x0,%dl
    2e0e:	84 d2                	test   %dl,%dl
    2e10:	75 0b                	jne    2e1d <__cxa_finalize@plt+0xb1d>
    2e12:	48 8d 58 04          	lea    0x4(%rax),%rbx
    2e16:	48 89 1d 83 72 00 00 	mov    %rbx,0x7283(%rip)        # a0a0 <__progname@@GLIBC_2.2.5>
    2e1d:	48 89 1d bc 72 00 00 	mov    %rbx,0x72bc(%rip)        # a0e0 <program_name@@Base>
    2e24:	48 89 1d 8d 72 00 00 	mov    %rbx,0x728d(%rip)        # a0b8 <__progname_full@@GLIBC_2.2.5>
    2e2b:	5b                   	pop    %rbx
    2e2c:	c3                   	retq   
    2e2d:	48 8b 0d 8c 72 00 00 	mov    0x728c(%rip),%rcx        # a0c0 <stderr@@GLIBC_2.2.5>
    2e34:	ba 37 00 00 00       	mov    $0x37,%edx
    2e39:	be 01 00 00 00       	mov    $0x1,%esi
    2e3e:	48 8d 3d ab 37 00 00 	lea    0x37ab(%rip),%rdi        # 65f0 <_IO_stdin_used@@Base+0x5f0>
    2e45:	e8 56 f4 ff ff       	callq  22a0 <fwrite@plt>
    2e4a:	e8 f1 f1 ff ff       	callq  2040 <abort@plt>
    2e4f:	90                   	nop
    2e50:	41 54                	push   %r12
    2e52:	ba 05 00 00 00       	mov    $0x5,%edx
    2e57:	41 89 f4             	mov    %esi,%r12d
    2e5a:	48 89 fe             	mov    %rdi,%rsi
    2e5d:	55                   	push   %rbp
    2e5e:	48 89 fd             	mov    %rdi,%rbp
    2e61:	31 ff                	xor    %edi,%edi
    2e63:	53                   	push   %rbx
    2e64:	e8 57 f2 ff ff       	callq  20c0 <dcgettext@plt>
    2e69:	48 89 c3             	mov    %rax,%rbx
    2e6c:	48 39 c5             	cmp    %rax,%rbp
    2e6f:	74 0f                	je     2e80 <__cxa_finalize@plt+0xb80>
    2e71:	48 89 d8             	mov    %rbx,%rax
    2e74:	5b                   	pop    %rbx
    2e75:	5d                   	pop    %rbp
    2e76:	41 5c                	pop    %r12
    2e78:	c3                   	retq   
    2e79:	0f 1f 80 00 00 00 00 	nopl   0x0(%rax)
    2e80:	e8 6b 28 00 00       	callq  56f0 <__cxa_finalize@plt+0x33f0>
    2e85:	0f b6 10             	movzbl (%rax),%edx
    2e88:	83 e2 df             	and    $0xffffffdf,%edx
    2e8b:	80 fa 55             	cmp    $0x55,%dl
    2e8e:	75 40                	jne    2ed0 <__cxa_finalize@plt+0xbd0>
    2e90:	0f b6 50 01          	movzbl 0x1(%rax),%edx
    2e94:	83 e2 df             	and    $0xffffffdf,%edx
    2e97:	80 fa 54             	cmp    $0x54,%dl
    2e9a:	0f 85 80 00 00 00    	jne    2f20 <__cxa_finalize@plt+0xc20>
    2ea0:	0f b6 50 02          	movzbl 0x2(%rax),%edx
    2ea4:	83 e2 df             	and    $0xffffffdf,%edx
    2ea7:	80 fa 46             	cmp    $0x46,%dl
    2eaa:	75 74                	jne    2f20 <__cxa_finalize@plt+0xc20>
    2eac:	80 78 03 2d          	cmpb   $0x2d,0x3(%rax)
    2eb0:	75 6e                	jne    2f20 <__cxa_finalize@plt+0xc20>
    2eb2:	80 78 04 38          	cmpb   $0x38,0x4(%rax)
    2eb6:	75 68                	jne    2f20 <__cxa_finalize@plt+0xc20>
    2eb8:	80 78 05 00          	cmpb   $0x0,0x5(%rax)
    2ebc:	75 62                	jne    2f20 <__cxa_finalize@plt+0xc20>
    2ebe:	80 3b 60             	cmpb   $0x60,(%rbx)
    2ec1:	0f 84 79 00 00 00    	je     2f40 <__cxa_finalize@plt+0xc40>
    2ec7:	48 8d 1d 68 37 00 00 	lea    0x3768(%rip),%rbx        # 6636 <_IO_stdin_used@@Base+0x636>
    2ece:	eb a1                	jmp    2e71 <__cxa_finalize@plt+0xb71>
    2ed0:	80 fa 47             	cmp    $0x47,%dl
    2ed3:	75 4b                	jne    2f20 <__cxa_finalize@plt+0xc20>
    2ed5:	0f b6 50 01          	movzbl 0x1(%rax),%edx
    2ed9:	83 e2 df             	and    $0xffffffdf,%edx
    2edc:	80 fa 42             	cmp    $0x42,%dl
    2edf:	75 3f                	jne    2f20 <__cxa_finalize@plt+0xc20>
    2ee1:	80 78 02 31          	cmpb   $0x31,0x2(%rax)
    2ee5:	75 39                	jne    2f20 <__cxa_finalize@plt+0xc20>
    2ee7:	80 78 03 38          	cmpb   $0x38,0x3(%rax)
    2eeb:	75 33                	jne    2f20 <__cxa_finalize@plt+0xc20>
    2eed:	80 78 04 30          	cmpb   $0x30,0x4(%rax)
    2ef1:	75 2d                	jne    2f20 <__cxa_finalize@plt+0xc20>
    2ef3:	80 78 05 33          	cmpb   $0x33,0x5(%rax)
    2ef7:	75 27                	jne    2f20 <__cxa_finalize@plt+0xc20>
    2ef9:	80 78 06 30          	cmpb   $0x30,0x6(%rax)
    2efd:	75 21                	jne    2f20 <__cxa_finalize@plt+0xc20>
    2eff:	80 78 07 00          	cmpb   $0x0,0x7(%rax)
    2f03:	75 1b                	jne    2f20 <__cxa_finalize@plt+0xc20>
    2f05:	80 3b 60             	cmpb   $0x60,(%rbx)
    2f08:	74 46                	je     2f50 <__cxa_finalize@plt+0xc50>
    2f0a:	48 8d 1d 29 37 00 00 	lea    0x3729(%rip),%rbx        # 663a <_IO_stdin_used@@Base+0x63a>
    2f11:	e9 5b ff ff ff       	jmpq   2e71 <__cxa_finalize@plt+0xb71>
    2f16:	66 2e 0f 1f 84 00 00 	nopw   %cs:0x0(%rax,%rax,1)
    2f1d:	00 00 00 
    2f20:	41 83 fc 09          	cmp    $0x9,%r12d
    2f24:	48 8d 05 1a 37 00 00 	lea    0x371a(%rip),%rax        # 6645 <_IO_stdin_used@@Base+0x645>
    2f2b:	48 8d 1d 02 37 00 00 	lea    0x3702(%rip),%rbx        # 6634 <_IO_stdin_used@@Base+0x634>
    2f32:	48 0f 45 d8          	cmovne %rax,%rbx
    2f36:	48 89 d8             	mov    %rbx,%rax
    2f39:	5b                   	pop    %rbx
    2f3a:	5d                   	pop    %rbp
    2f3b:	41 5c                	pop    %r12
    2f3d:	c3                   	retq   
    2f3e:	66 90                	xchg   %ax,%ax
    2f40:	48 8d 1d fa 36 00 00 	lea    0x36fa(%rip),%rbx        # 6641 <_IO_stdin_used@@Base+0x641>
    2f47:	e9 25 ff ff ff       	jmpq   2e71 <__cxa_finalize@plt+0xb71>
    2f4c:	0f 1f 40 00          	nopl   0x0(%rax)
    2f50:	48 8d 1d e6 36 00 00 	lea    0x36e6(%rip),%rbx        # 663d <_IO_stdin_used@@Base+0x63d>
    2f57:	e9 15 ff ff ff       	jmpq   2e71 <__cxa_finalize@plt+0xb71>
    2f5c:	0f 1f 40 00          	nopl   0x0(%rax)
    2f60:	41 57                	push   %r15
    2f62:	41 56                	push   %r14
    2f64:	49 89 fe             	mov    %rdi,%r14
    2f67:	41 55                	push   %r13
    2f69:	41 54                	push   %r12
    2f6b:	49 89 f4             	mov    %rsi,%r12
    2f6e:	55                   	push   %rbp
    2f6f:	48 89 cd             	mov    %rcx,%rbp
    2f72:	53                   	push   %rbx
    2f73:	44 89 cb             	mov    %r9d,%ebx
    2f76:	48 81 ec c8 00 00 00 	sub    $0xc8,%rsp
    2f7d:	48 8b 84 24 00 01 00 	mov    0x100(%rsp),%rax
    2f84:	00 
    2f85:	48 89 54 24 10       	mov    %rdx,0x10(%rsp)
    2f8a:	44 89 44 24 08       	mov    %r8d,0x8(%rsp)
    2f8f:	48 89 44 24 20       	mov    %rax,0x20(%rsp)
    2f94:	48 8b 84 24 08 01 00 	mov    0x108(%rsp),%rax
    2f9b:	00 
    2f9c:	44 89 8c 24 88 00 00 	mov    %r9d,0x88(%rsp)
    2fa3:	00 
    2fa4:	48 89 44 24 68       	mov    %rax,0x68(%rsp)
    2fa9:	48 8b 84 24 10 01 00 	mov    0x110(%rsp),%rax
    2fb0:	00 
    2fb1:	48 89 44 24 60       	mov    %rax,0x60(%rsp)
    2fb6:	64 48 8b 04 25 28 00 	mov    %fs:0x28,%rax
    2fbd:	00 00 
    2fbf:	48 89 84 24 b8 00 00 	mov    %rax,0xb8(%rsp)
    2fc6:	00 
    2fc7:	31 c0                	xor    %eax,%eax
    2fc9:	e8 02 f1 ff ff       	callq  20d0 <__ctype_get_mb_cur_max@plt>
    2fce:	44 8b 5c 24 08       	mov    0x8(%rsp),%r11d
    2fd3:	83 e3 02             	and    $0x2,%ebx
    2fd6:	48 89 44 24 58       	mov    %rax,0x58(%rsp)
    2fdb:	0f 95 44 24 43       	setne  0x43(%rsp)
    2fe0:	41 83 fb 0a          	cmp    $0xa,%r11d
    2fe4:	0f 87 26 f3 ff ff    	ja     2310 <__cxa_finalize@plt+0x10>
    2fea:	48 8d 0d af 36 00 00 	lea    0x36af(%rip),%rcx        # 66a0 <_IO_stdin_used@@Base+0x6a0>
    2ff1:	44 89 da             	mov    %r11d,%edx
    2ff4:	48 63 04 91          	movslq (%rcx,%rdx,4),%rax
    2ff8:	48 01 c8             	add    %rcx,%rax
    2ffb:	ff e0                	jmpq   *%rax
    2ffd:	c6 44 24 42 01       	movb   $0x1,0x42(%rsp)
    3002:	45 31 ed             	xor    %r13d,%r13d
    3005:	c6 84 24 8d 00 00 00 	movb   $0x0,0x8d(%rsp)
    300c:	00 
    300d:	48 c7 44 24 50 00 00 	movq   $0x0,0x50(%rsp)
    3014:	00 00 
    3016:	c6 44 24 43 01       	movb   $0x1,0x43(%rsp)
    301b:	c6 44 24 08 00       	movb   $0x0,0x8(%rsp)
    3020:	48 8d 05 1e 36 00 00 	lea    0x361e(%rip),%rax        # 6645 <_IO_stdin_used@@Base+0x645>
    3027:	45 31 ff             	xor    %r15d,%r15d
    302a:	41 bb 02 00 00 00    	mov    $0x2,%r11d
    3030:	48 c7 44 24 18 01 00 	movq   $0x1,0x18(%rsp)
    3037:	00 00 
    3039:	48 89 44 24 48       	mov    %rax,0x48(%rsp)
    303e:	45 31 d2             	xor    %r10d,%r10d
    3041:	44 89 d8             	mov    %r11d,%eax
    3044:	45 89 e8             	mov    %r13d,%r8d
    3047:	49 89 eb             	mov    %rbp,%r11
    304a:	4c 89 d5             	mov    %r10,%rbp
    304d:	41 89 c2             	mov    %eax,%r10d
    3050:	49 39 eb             	cmp    %rbp,%r11
    3053:	41 0f 95 c5          	setne  %r13b
    3057:	49 83 fb ff          	cmp    $0xffffffffffffffff,%r11
    305b:	75 0d                	jne    306a <__cxa_finalize@plt+0xd6a>
    305d:	48 8b 44 24 10       	mov    0x10(%rsp),%rax
    3062:	80 3c 28 00          	cmpb   $0x0,(%rax,%rbp,1)
    3066:	41 0f 95 c5          	setne  %r13b
    306a:	45 84 ed             	test   %r13b,%r13b
    306d:	0f 84 55 07 00 00    	je     37c8 <__cxa_finalize@plt+0x14c8>
    3073:	41 83 fa 02          	cmp    $0x2,%r10d
    3077:	48 8b 7c 24 10       	mov    0x10(%rsp),%rdi
    307c:	0f 95 c0             	setne  %al
    307f:	22 44 24 08          	and    0x8(%rsp),%al
    3083:	4c 8d 0c 2f          	lea    (%rdi,%rbp,1),%r9
    3087:	88 44 24 0c          	mov    %al,0xc(%rsp)
    308b:	0f 84 1f 05 00 00    	je     35b0 <__cxa_finalize@plt+0x12b0>
    3091:	48 8b 44 24 18       	mov    0x18(%rsp),%rax
    3096:	48 85 c0             	test   %rax,%rax
    3099:	0f 84 a1 06 00 00    	je     3740 <__cxa_finalize@plt+0x1440>
    309f:	48 8d 5c 05 00       	lea    0x0(%rbp,%rax,1),%rbx
    30a4:	49 83 fb ff          	cmp    $0xffffffffffffffff,%r11
    30a8:	75 2d                	jne    30d7 <__cxa_finalize@plt+0xdd7>
    30aa:	48 83 f8 01          	cmp    $0x1,%rax
    30ae:	76 27                	jbe    30d7 <__cxa_finalize@plt+0xdd7>
    30b0:	44 89 54 24 38       	mov    %r10d,0x38(%rsp)
    30b5:	44 88 44 24 30       	mov    %r8b,0x30(%rsp)
    30ba:	4c 89 4c 24 28       	mov    %r9,0x28(%rsp)
    30bf:	e8 1c f0 ff ff       	callq  20e0 <strlen@plt>
    30c4:	44 8b 54 24 38       	mov    0x38(%rsp),%r10d
    30c9:	44 0f b6 44 24 30    	movzbl 0x30(%rsp),%r8d
    30cf:	4c 8b 4c 24 28       	mov    0x28(%rsp),%r9
    30d4:	49 89 c3             	mov    %rax,%r11
    30d7:	4c 39 db             	cmp    %r11,%rbx
    30da:	0f 87 60 06 00 00    	ja     3740 <__cxa_finalize@plt+0x1440>
    30e0:	48 8b 54 24 18       	mov    0x18(%rsp),%rdx
    30e5:	48 8b 74 24 48       	mov    0x48(%rsp),%rsi
    30ea:	4c 89 cf             	mov    %r9,%rdi
    30ed:	44 89 54 24 44       	mov    %r10d,0x44(%rsp)
    30f2:	4c 89 5c 24 38       	mov    %r11,0x38(%rsp)
    30f7:	44 88 44 24 30       	mov    %r8b,0x30(%rsp)
    30fc:	4c 89 4c 24 28       	mov    %r9,0x28(%rsp)
    3101:	e8 6a f0 ff ff       	callq  2170 <memcmp@plt>
    3106:	4c 8b 4c 24 28       	mov    0x28(%rsp),%r9
    310b:	44 0f b6 44 24 30    	movzbl 0x30(%rsp),%r8d
    3111:	85 c0                	test   %eax,%eax
    3113:	4c 8b 5c 24 38       	mov    0x38(%rsp),%r11
    3118:	44 8b 54 24 44       	mov    0x44(%rsp),%r10d
    311d:	0f 85 1d 06 00 00    	jne    3740 <__cxa_finalize@plt+0x1440>
    3123:	80 7c 24 43 00       	cmpb   $0x0,0x43(%rsp)
    3128:	0f 85 fd 0f 00 00    	jne    412b <__cxa_finalize@plt+0x1e2b>
    312e:	41 0f b6 19          	movzbl (%r9),%ebx
    3132:	80 fb 7e             	cmp    $0x7e,%bl
    3135:	0f 87 12 04 00 00    	ja     354d <__cxa_finalize@plt+0x124d>
    313b:	48 8d 0d 8a 35 00 00 	lea    0x358a(%rip),%rcx        # 66cc <_IO_stdin_used@@Base+0x6cc>
    3142:	0f b6 d3             	movzbl %bl,%edx
    3145:	48 63 04 91          	movslq (%rcx,%rdx,4),%rax
    3149:	48 01 c8             	add    %rcx,%rax
    314c:	ff e0                	jmpq   *%rax
    314e:	66 90                	xchg   %ax,%ax
    3150:	c6 44 24 0c 00       	movb   $0x0,0xc(%rsp)
    3155:	49 83 fb 01          	cmp    $0x1,%r11
    3159:	0f 95 c0             	setne  %al
    315c:	49 83 fb ff          	cmp    $0xffffffffffffffff,%r11
    3160:	75 0c                	jne    316e <__cxa_finalize@plt+0xe6e>
    3162:	48 8b 44 24 10       	mov    0x10(%rsp),%rax
    3167:	80 78 01 00          	cmpb   $0x0,0x1(%rax)
    316b:	0f 95 c0             	setne  %al
    316e:	41 83 fa 02          	cmp    $0x2,%r10d
    3172:	0f 94 c2             	sete   %dl
    3175:	84 c0                	test   %al,%al
    3177:	0f 85 06 02 00 00    	jne    3383 <__cxa_finalize@plt+0x1083>
    317d:	48 85 ed             	test   %rbp,%rbp
    3180:	0f 85 fd 01 00 00    	jne    3383 <__cxa_finalize@plt+0x1083>
    3186:	80 7c 24 43 00       	cmpb   $0x0,0x43(%rsp)
    318b:	74 0b                	je     3198 <__cxa_finalize@plt+0xe98>
    318d:	84 d2                	test   %dl,%dl
    318f:	0f 85 5d 04 00 00    	jne    35f2 <__cxa_finalize@plt+0x12f2>
    3195:	0f 1f 00             	nopl   (%rax)
    3198:	0f b6 44 24 08       	movzbl 0x8(%rsp),%eax
    319d:	83 f0 01             	xor    $0x1,%eax
    31a0:	09 d0                	or     %edx,%eax
    31a2:	83 f0 01             	xor    $0x1,%eax
    31a5:	0a 44 24 43          	or     0x43(%rsp),%al
    31a9:	0f 84 f1 00 00 00    	je     32a0 <__cxa_finalize@plt+0xfa0>
    31af:	31 c0                	xor    %eax,%eax
    31b1:	48 8b 74 24 20       	mov    0x20(%rsp),%rsi
    31b6:	48 85 f6             	test   %rsi,%rsi
    31b9:	0f 84 e1 00 00 00    	je     32a0 <__cxa_finalize@plt+0xfa0>
    31bf:	89 da                	mov    %ebx,%edx
    31c1:	89 d9                	mov    %ebx,%ecx
    31c3:	c0 ea 05             	shr    $0x5,%dl
    31c6:	0f b6 d2             	movzbl %dl,%edx
    31c9:	8b 14 96             	mov    (%rsi,%rdx,4),%edx
    31cc:	d3 ea                	shr    %cl,%edx
    31ce:	83 e2 01             	and    $0x1,%edx
    31d1:	0f 84 c9 00 00 00    	je     32a0 <__cxa_finalize@plt+0xfa0>
    31d7:	41 83 fa 02          	cmp    $0x2,%r10d
    31db:	0f 94 c2             	sete   %dl
    31de:	80 7c 24 43 00       	cmpb   $0x0,0x43(%rsp)
    31e3:	0f 85 bf 01 00 00    	jne    33a8 <__cxa_finalize@plt+0x10a8>
    31e9:	44 89 c0             	mov    %r8d,%eax
    31ec:	83 f0 01             	xor    $0x1,%eax
    31ef:	20 d0                	and    %dl,%al
    31f1:	74 2f                	je     3222 <__cxa_finalize@plt+0xf22>
    31f3:	4d 39 fc             	cmp    %r15,%r12
    31f6:	76 05                	jbe    31fd <__cxa_finalize@plt+0xefd>
    31f8:	43 c6 04 3e 27       	movb   $0x27,(%r14,%r15,1)
    31fd:	49 8d 57 01          	lea    0x1(%r15),%rdx
    3201:	4c 39 e2             	cmp    %r12,%rdx
    3204:	73 06                	jae    320c <__cxa_finalize@plt+0xf0c>
    3206:	43 c6 44 3e 01 24    	movb   $0x24,0x1(%r14,%r15,1)
    320c:	49 8d 57 02          	lea    0x2(%r15),%rdx
    3210:	4c 39 e2             	cmp    %r12,%rdx
    3213:	73 06                	jae    321b <__cxa_finalize@plt+0xf1b>
    3215:	43 c6 44 3e 02 27    	movb   $0x27,0x2(%r14,%r15,1)
    321b:	49 83 c7 03          	add    $0x3,%r15
    321f:	41 89 c0             	mov    %eax,%r8d
    3222:	4d 39 fc             	cmp    %r15,%r12
    3225:	76 05                	jbe    322c <__cxa_finalize@plt+0xf2c>
    3227:	43 c6 04 3e 5c       	movb   $0x5c,(%r14,%r15,1)
    322c:	49 83 c7 01          	add    $0x1,%r15
    3230:	48 83 c5 01          	add    $0x1,%rbp
    3234:	4d 39 e7             	cmp    %r12,%r15
    3237:	73 04                	jae    323d <__cxa_finalize@plt+0xf3d>
    3239:	43 88 1c 3e          	mov    %bl,(%r14,%r15,1)
    323d:	0f b6 7c 24 42       	movzbl 0x42(%rsp),%edi
    3242:	49 83 c7 01          	add    $0x1,%r15
    3246:	b8 00 00 00 00       	mov    $0x0,%eax
    324b:	45 84 ed             	test   %r13b,%r13b
    324e:	0f 44 f8             	cmove  %eax,%edi
    3251:	40 88 7c 24 42       	mov    %dil,0x42(%rsp)
    3256:	e9 f5 fd ff ff       	jmpq   3050 <__cxa_finalize@plt+0xd50>
    325b:	0f 1f 44 00 00       	nopl   0x0(%rax,%rax,1)
    3260:	80 7c 24 43 00       	cmpb   $0x0,0x43(%rsp)
    3265:	0f 85 b5 0e 00 00    	jne    4120 <__cxa_finalize@plt+0x1e20>
    326b:	4d 85 e4             	test   %r12,%r12
    326e:	0f 84 18 08 00 00    	je     3a8c <__cxa_finalize@plt+0x178c>
    3274:	31 d2                	xor    %edx,%edx
    3276:	48 83 7c 24 50 00    	cmpq   $0x0,0x50(%rsp)
    327c:	0f 85 0a 08 00 00    	jne    3a8c <__cxa_finalize@plt+0x178c>
    3282:	4c 89 64 24 50       	mov    %r12,0x50(%rsp)
    3287:	49 83 c7 03          	add    $0x3,%r15
    328b:	31 c0                	xor    %eax,%eax
    328d:	45 31 c0             	xor    %r8d,%r8d
    3290:	44 88 ac 24 8d 00 00 	mov    %r13b,0x8d(%rsp)
    3297:	00 
    3298:	49 89 d4             	mov    %rdx,%r12
    329b:	bb 27 00 00 00       	mov    $0x27,%ebx
    32a0:	41 83 fa 02          	cmp    $0x2,%r10d
    32a4:	0f 94 c2             	sete   %dl
    32a7:	80 7c 24 0c 00       	cmpb   $0x0,0xc(%rsp)
    32ac:	0f 85 2c ff ff ff    	jne    31de <__cxa_finalize@plt+0xede>
    32b2:	83 f0 01             	xor    $0x1,%eax
    32b5:	48 83 c5 01          	add    $0x1,%rbp
    32b9:	44 21 c0             	and    %r8d,%eax
    32bc:	84 c0                	test   %al,%al
    32be:	0f 84 70 ff ff ff    	je     3234 <__cxa_finalize@plt+0xf34>
    32c4:	4d 39 fc             	cmp    %r15,%r12
    32c7:	76 05                	jbe    32ce <__cxa_finalize@plt+0xfce>
    32c9:	43 c6 04 3e 27       	movb   $0x27,(%r14,%r15,1)
    32ce:	49 8d 47 01          	lea    0x1(%r15),%rax
    32d2:	49 39 c4             	cmp    %rax,%r12
    32d5:	76 06                	jbe    32dd <__cxa_finalize@plt+0xfdd>
    32d7:	43 c6 44 3e 01 27    	movb   $0x27,0x1(%r14,%r15,1)
    32dd:	49 83 c7 02          	add    $0x2,%r15
    32e1:	45 31 c0             	xor    %r8d,%r8d
    32e4:	e9 4b ff ff ff       	jmpq   3234 <__cxa_finalize@plt+0xf34>
    32e9:	0f 1f 80 00 00 00 00 	nopl   0x0(%rax)
    32f0:	c6 44 24 0c 00       	movb   $0x0,0xc(%rsp)
    32f5:	41 83 fa 02          	cmp    $0x2,%r10d
    32f9:	0f 84 b1 05 00 00    	je     38b0 <__cxa_finalize@plt+0x15b0>
    32ff:	41 83 fa 05          	cmp    $0x5,%r10d
    3303:	0f 84 67 05 00 00    	je     3870 <__cxa_finalize@plt+0x1570>
    3309:	41 83 fa 02          	cmp    $0x2,%r10d
    330d:	bb 3f 00 00 00       	mov    $0x3f,%ebx
    3312:	0f 94 c2             	sete   %dl
    3315:	45 31 ed             	xor    %r13d,%r13d
    3318:	e9 7b fe ff ff       	jmpq   3198 <__cxa_finalize@plt+0xe98>
    331d:	0f 1f 00             	nopl   (%rax)
    3320:	c6 44 24 0c 00       	movb   $0x0,0xc(%rsp)
    3325:	41 83 fa 02          	cmp    $0x2,%r10d
    3329:	0f 84 31 ff ff ff    	je     3260 <__cxa_finalize@plt+0xf60>
    332f:	44 88 ac 24 8d 00 00 	mov    %r13b,0x8d(%rsp)
    3336:	00 
    3337:	31 d2                	xor    %edx,%edx
    3339:	bb 27 00 00 00       	mov    $0x27,%ebx
    333e:	e9 55 fe ff ff       	jmpq   3198 <__cxa_finalize@plt+0xe98>
    3343:	0f 1f 44 00 00       	nopl   0x0(%rax,%rax,1)
    3348:	c6 44 24 0c 00       	movb   $0x0,0xc(%rsp)
    334d:	0f b6 54 24 08       	movzbl 0x8(%rsp),%edx
    3352:	22 54 24 43          	and    0x43(%rsp),%dl
    3356:	bb 5c 00 00 00       	mov    $0x5c,%ebx
    335b:	b9 5c 00 00 00       	mov    $0x5c,%ecx
    3360:	48 83 7c 24 18 00    	cmpq   $0x0,0x18(%rsp)
    3366:	0f 95 c0             	setne  %al
    3369:	20 c2                	and    %al,%dl
    336b:	0f 85 6a 0b 00 00    	jne    3edb <__cxa_finalize@plt+0x1bdb>
    3371:	0f 1f 80 00 00 00 00 	nopl   0x0(%rax)
    3378:	80 7c 24 08 00       	cmpb   $0x0,0x8(%rsp)
    337d:	0f 85 c1 0e 00 00    	jne    4244 <__cxa_finalize@plt+0x1f44>
    3383:	45 31 ed             	xor    %r13d,%r13d
    3386:	e9 0d fe ff ff       	jmpq   3198 <__cxa_finalize@plt+0xe98>
    338b:	0f 1f 44 00 00       	nopl   0x0(%rax,%rax,1)
    3390:	bb 6e 00 00 00       	mov    $0x6e,%ebx
    3395:	31 d2                	xor    %edx,%edx
    3397:	45 31 ed             	xor    %r13d,%r13d
    339a:	80 7c 24 43 00       	cmpb   $0x0,0x43(%rsp)
    339f:	0f 84 44 fe ff ff    	je     31e9 <__cxa_finalize@plt+0xee9>
    33a5:	0f 1f 00             	nopl   (%rax)
    33a8:	4c 89 dd             	mov    %r11,%rbp
    33ab:	89 d0                	mov    %edx,%eax
    33ad:	45 89 d3             	mov    %r10d,%r11d
    33b0:	20 44 24 08          	and    %al,0x8(%rsp)
    33b4:	80 7c 24 08 00       	cmpb   $0x0,0x8(%rsp)
    33b9:	b8 04 00 00 00       	mov    $0x4,%eax
    33be:	44 0f 45 d8          	cmovne %eax,%r11d
    33c2:	48 83 ec 08          	sub    $0x8,%rsp
    33c6:	45 89 d8             	mov    %r11d,%r8d
    33c9:	48 89 e9             	mov    %rbp,%rcx
    33cc:	ff 74 24 68          	pushq  0x68(%rsp)
    33d0:	4c 89 e6             	mov    %r12,%rsi
    33d3:	4c 89 f7             	mov    %r14,%rdi
    33d6:	ff 74 24 78          	pushq  0x78(%rsp)
    33da:	6a 00                	pushq  $0x0
    33dc:	44 8b 8c 24 a8 00 00 	mov    0xa8(%rsp),%r9d
    33e3:	00 
    33e4:	48 8b 54 24 30       	mov    0x30(%rsp),%rdx
    33e9:	41 83 e1 fd          	and    $0xfffffffd,%r9d
    33ed:	e8 6e fb ff ff       	callq  2f60 <__cxa_finalize@plt+0xc60>
    33f2:	48 83 c4 20          	add    $0x20,%rsp
    33f6:	49 89 c7             	mov    %rax,%r15
    33f9:	48 8b 9c 24 b8 00 00 	mov    0xb8(%rsp),%rbx
    3400:	00 
    3401:	64 48 33 1c 25 28 00 	xor    %fs:0x28,%rbx
    3408:	00 00 
    340a:	4c 89 f8             	mov    %r15,%rax
    340d:	0f 85 d6 0d 00 00    	jne    41e9 <__cxa_finalize@plt+0x1ee9>
    3413:	48 81 c4 c8 00 00 00 	add    $0xc8,%rsp
    341a:	5b                   	pop    %rbx
    341b:	5d                   	pop    %rbp
    341c:	41 5c                	pop    %r12
    341e:	41 5d                	pop    %r13
    3420:	41 5e                	pop    %r14
    3422:	41 5f                	pop    %r15
    3424:	c3                   	retq   
    3425:	0f 1f 00             	nopl   (%rax)
    3428:	bb 74 00 00 00       	mov    $0x74,%ebx
    342d:	e9 63 ff ff ff       	jmpq   3395 <__cxa_finalize@plt+0x1095>
    3432:	66 0f 1f 44 00 00    	nopw   0x0(%rax,%rax,1)
    3438:	c6 44 24 0c 00       	movb   $0x0,0xc(%rsp)
    343d:	31 d2                	xor    %edx,%edx
    343f:	e9 3f ff ff ff       	jmpq   3383 <__cxa_finalize@plt+0x1083>
    3444:	0f 1f 40 00          	nopl   0x0(%rax)
    3448:	c6 44 24 0c 00       	movb   $0x0,0xc(%rsp)
    344d:	41 83 fa 02          	cmp    $0x2,%r10d
    3451:	bb 0d 00 00 00       	mov    $0xd,%ebx
    3456:	b9 72 00 00 00       	mov    $0x72,%ecx
    345b:	0f 94 c2             	sete   %dl
    345e:	e9 15 ff ff ff       	jmpq   3378 <__cxa_finalize@plt+0x1078>
    3463:	0f 1f 44 00 00       	nopl   0x0(%rax,%rax,1)
    3468:	bb 66 00 00 00       	mov    $0x66,%ebx
    346d:	80 7c 24 43 00       	cmpb   $0x0,0x43(%rsp)
    3472:	0f 85 5b 0c 00 00    	jne    40d3 <__cxa_finalize@plt+0x1dd3>
    3478:	45 31 ed             	xor    %r13d,%r13d
    347b:	e9 a2 fd ff ff       	jmpq   3222 <__cxa_finalize@plt+0xf22>
    3480:	bb 76 00 00 00       	mov    $0x76,%ebx
    3485:	eb e6                	jmp    346d <__cxa_finalize@plt+0x116d>
    3487:	66 0f 1f 84 00 00 00 	nopw   0x0(%rax,%rax,1)
    348e:	00 00 
    3490:	80 7c 24 43 00       	cmpb   $0x0,0x43(%rsp)
    3495:	0f 85 e3 0c 00 00    	jne    417e <__cxa_finalize@plt+0x1e7e>
    349b:	c6 44 24 0c 00       	movb   $0x0,0xc(%rsp)
    34a0:	41 83 fa 02          	cmp    $0x2,%r10d
    34a4:	44 89 c0             	mov    %r8d,%eax
    34a7:	0f 94 c2             	sete   %dl
    34aa:	83 f0 01             	xor    $0x1,%eax
    34ad:	20 d0                	and    %dl,%al
    34af:	0f 84 c3 05 00 00    	je     3a78 <__cxa_finalize@plt+0x1778>
    34b5:	4d 39 fc             	cmp    %r15,%r12
    34b8:	76 05                	jbe    34bf <__cxa_finalize@plt+0x11bf>
    34ba:	43 c6 04 3e 27       	movb   $0x27,(%r14,%r15,1)
    34bf:	49 8d 4f 01          	lea    0x1(%r15),%rcx
    34c3:	49 39 cc             	cmp    %rcx,%r12
    34c6:	76 06                	jbe    34ce <__cxa_finalize@plt+0x11ce>
    34c8:	43 c6 44 3e 01 24    	movb   $0x24,0x1(%r14,%r15,1)
    34ce:	49 8d 4f 02          	lea    0x2(%r15),%rcx
    34d2:	49 39 cc             	cmp    %rcx,%r12
    34d5:	76 06                	jbe    34dd <__cxa_finalize@plt+0x11dd>
    34d7:	43 c6 44 3e 02 27    	movb   $0x27,0x2(%r14,%r15,1)
    34dd:	49 8d 4f 03          	lea    0x3(%r15),%rcx
    34e1:	49 39 cc             	cmp    %rcx,%r12
    34e4:	0f 86 36 07 00 00    	jbe    3c20 <__cxa_finalize@plt+0x1920>
    34ea:	41 c6 04 0e 5c       	movb   $0x5c,(%r14,%rcx,1)
    34ef:	41 89 c0             	mov    %eax,%r8d
    34f2:	4c 8d 79 01          	lea    0x1(%rcx),%r15
    34f6:	41 83 fa 02          	cmp    $0x2,%r10d
    34fa:	0f 84 60 0a 00 00    	je     3f60 <__cxa_finalize@plt+0x1c60>
    3500:	48 8d 45 01          	lea    0x1(%rbp),%rax
    3504:	bb 30 00 00 00       	mov    $0x30,%ebx
    3509:	4c 39 d8             	cmp    %r11,%rax
    350c:	73 19                	jae    3527 <__cxa_finalize@plt+0x1227>
    350e:	48 8b 44 24 10       	mov    0x10(%rsp),%rax
    3513:	0f b6 44 28 01       	movzbl 0x1(%rax,%rbp,1),%eax
    3518:	88 44 24 28          	mov    %al,0x28(%rsp)
    351c:	83 e8 30             	sub    $0x30,%eax
    351f:	3c 09                	cmp    $0x9,%al
    3521:	0f 86 6a 09 00 00    	jbe    3e91 <__cxa_finalize@plt+0x1b91>
    3527:	0f b6 44 24 08       	movzbl 0x8(%rsp),%eax
    352c:	83 f0 01             	xor    $0x1,%eax
    352f:	08 d0                	or     %dl,%al
    3531:	44 89 e8             	mov    %r13d,%eax
    3534:	41 bd 00 00 00 00    	mov    $0x0,%r13d
    353a:	0f 84 71 fc ff ff    	je     31b1 <__cxa_finalize@plt+0xeb1>
    3540:	e9 5b fd ff ff       	jmpq   32a0 <__cxa_finalize@plt+0xfa0>
    3545:	0f 1f 00             	nopl   (%rax)
    3548:	c6 44 24 0c 00       	movb   $0x0,0xc(%rsp)
    354d:	48 83 7c 24 58 01    	cmpq   $0x1,0x58(%rsp)
    3553:	0f 85 77 03 00 00    	jne    38d0 <__cxa_finalize@plt+0x15d0>
    3559:	44 89 54 24 38       	mov    %r10d,0x38(%rsp)
    355e:	4c 89 5c 24 30       	mov    %r11,0x30(%rsp)
    3563:	44 88 44 24 28       	mov    %r8b,0x28(%rsp)
    3568:	e8 83 ed ff ff       	callq  22f0 <__ctype_b_loc@plt>
    356d:	0f b6 d3             	movzbl %bl,%edx
    3570:	44 0f b6 44 24 28    	movzbl 0x28(%rsp),%r8d
    3576:	4c 8b 5c 24 30       	mov    0x30(%rsp),%r11
    357b:	48 8b 00             	mov    (%rax),%rax
    357e:	44 8b 54 24 38       	mov    0x38(%rsp),%r10d
    3583:	bf 01 00 00 00       	mov    $0x1,%edi
    3588:	0f b7 04 50          	movzwl (%rax,%rdx,2),%eax
    358c:	66 25 00 40          	and    $0x4000,%ax
    3590:	41 0f 95 c5          	setne  %r13b
    3594:	0f 94 c2             	sete   %dl
    3597:	22 54 24 08          	and    0x8(%rsp),%dl
    359b:	84 d2                	test   %dl,%dl
    359d:	0f 85 2b 05 00 00    	jne    3ace <__cxa_finalize@plt+0x17ce>
    35a3:	41 83 fa 02          	cmp    $0x2,%r10d
    35a7:	0f 94 c2             	sete   %dl
    35aa:	e9 e9 fb ff ff       	jmpq   3198 <__cxa_finalize@plt+0xe98>
    35af:	90                   	nop
    35b0:	41 0f b6 19          	movzbl (%r9),%ebx
    35b4:	80 fb 7e             	cmp    $0x7e,%bl
    35b7:	77 94                	ja     354d <__cxa_finalize@plt+0x124d>
    35b9:	48 8d 0d 08 33 00 00 	lea    0x3308(%rip),%rcx        # 68c8 <_IO_stdin_used@@Base+0x8c8>
    35c0:	0f b6 d3             	movzbl %bl,%edx
    35c3:	48 63 04 91          	movslq (%rcx,%rdx,4),%rax
    35c7:	48 01 c8             	add    %rcx,%rax
    35ca:	ff e0                	jmpq   *%rax
    35cc:	0f 1f 40 00          	nopl   0x0(%rax)
    35d0:	bb 0a 00 00 00       	mov    $0xa,%ebx
    35d5:	b9 6e 00 00 00       	mov    $0x6e,%ecx
    35da:	41 83 fa 02          	cmp    $0x2,%r10d
    35de:	0f b6 44 24 43       	movzbl 0x43(%rsp),%eax
    35e3:	0f 94 c2             	sete   %dl
    35e6:	20 d0                	and    %dl,%al
    35e8:	88 44 24 0c          	mov    %al,0xc(%rsp)
    35ec:	0f 84 86 fd ff ff    	je     3378 <__cxa_finalize@plt+0x1078>
    35f2:	4c 89 dd             	mov    %r11,%rbp
    35f5:	41 bb 02 00 00 00    	mov    $0x2,%r11d
    35fb:	e9 b4 fd ff ff       	jmpq   33b4 <__cxa_finalize@plt+0x10b4>
    3600:	bb 09 00 00 00       	mov    $0x9,%ebx
    3605:	b9 74 00 00 00       	mov    $0x74,%ecx
    360a:	eb ce                	jmp    35da <__cxa_finalize@plt+0x12da>
    360c:	0f 1f 40 00          	nopl   0x0(%rax)
    3610:	41 83 fa 02          	cmp    $0x2,%r10d
    3614:	bb 08 00 00 00       	mov    $0x8,%ebx
    3619:	b9 62 00 00 00       	mov    $0x62,%ecx
    361e:	0f 94 c2             	sete   %dl
    3621:	e9 52 fd ff ff       	jmpq   3378 <__cxa_finalize@plt+0x1078>
    3626:	66 2e 0f 1f 84 00 00 	nopw   %cs:0x0(%rax,%rax,1)
    362d:	00 00 00 
    3630:	41 83 fa 02          	cmp    $0x2,%r10d
    3634:	bb 07 00 00 00       	mov    $0x7,%ebx
    3639:	b9 61 00 00 00       	mov    $0x61,%ecx
    363e:	0f 94 c2             	sete   %dl
    3641:	e9 32 fd ff ff       	jmpq   3378 <__cxa_finalize@plt+0x1078>
    3646:	66 2e 0f 1f 84 00 00 	nopw   %cs:0x0(%rax,%rax,1)
    364d:	00 00 00 
    3650:	80 7c 24 08 00       	cmpb   $0x0,0x8(%rsp)
    3655:	0f 85 35 fe ff ff    	jne    3490 <__cxa_finalize@plt+0x1190>
    365b:	f6 84 24 88 00 00 00 	testb  $0x1,0x88(%rsp)
    3662:	01 
    3663:	0f 85 5c 04 00 00    	jne    3ac5 <__cxa_finalize@plt+0x17c5>
    3669:	41 83 fa 02          	cmp    $0x2,%r10d
    366d:	c6 44 24 0c 00       	movb   $0x0,0xc(%rsp)
    3672:	0f 94 c2             	sete   %dl
    3675:	45 31 ed             	xor    %r13d,%r13d
    3678:	31 db                	xor    %ebx,%ebx
    367a:	e9 19 fb ff ff       	jmpq   3198 <__cxa_finalize@plt+0xe98>
    367f:	90                   	nop
    3680:	41 83 fa 02          	cmp    $0x2,%r10d
    3684:	0f 85 c3 fc ff ff    	jne    334d <__cxa_finalize@plt+0x104d>
    368a:	80 7c 24 43 00       	cmpb   $0x0,0x43(%rsp)
    368f:	0f 85 8b 0a 00 00    	jne    4120 <__cxa_finalize@plt+0x1e20>
    3695:	48 83 c5 01          	add    $0x1,%rbp
    3699:	44 89 c0             	mov    %r8d,%eax
    369c:	45 31 ed             	xor    %r13d,%r13d
    369f:	bb 5c 00 00 00       	mov    $0x5c,%ebx
    36a4:	e9 13 fc ff ff       	jmpq   32bc <__cxa_finalize@plt+0xfbc>
    36a9:	0f 1f 80 00 00 00 00 	nopl   0x0(%rax)
    36b0:	41 83 fa 02          	cmp    $0x2,%r10d
    36b4:	0f 94 c2             	sete   %dl
    36b7:	e9 c1 fa ff ff       	jmpq   317d <__cxa_finalize@plt+0xe7d>
    36bc:	0f 1f 40 00          	nopl   0x0(%rax)
    36c0:	41 83 fa 02          	cmp    $0x2,%r10d
    36c4:	0f 94 c2             	sete   %dl
    36c7:	45 31 ed             	xor    %r13d,%r13d
    36ca:	e9 b7 fa ff ff       	jmpq   3186 <__cxa_finalize@plt+0xe86>
    36cf:	90                   	nop
    36d0:	41 83 fa 02          	cmp    $0x2,%r10d
    36d4:	bb 20 00 00 00       	mov    $0x20,%ebx
    36d9:	0f 94 c2             	sete   %dl
    36dc:	e9 a5 fa ff ff       	jmpq   3186 <__cxa_finalize@plt+0xe86>
    36e1:	0f 1f 80 00 00 00 00 	nopl   0x0(%rax)
    36e8:	bb 0d 00 00 00       	mov    $0xd,%ebx
    36ed:	b9 72 00 00 00       	mov    $0x72,%ecx
    36f2:	e9 e3 fe ff ff       	jmpq   35da <__cxa_finalize@plt+0x12da>
    36f7:	66 0f 1f 84 00 00 00 	nopw   0x0(%rax,%rax,1)
    36fe:	00 00 
    3700:	41 83 fa 02          	cmp    $0x2,%r10d
    3704:	bb 0c 00 00 00       	mov    $0xc,%ebx
    3709:	b9 66 00 00 00       	mov    $0x66,%ecx
    370e:	0f 94 c2             	sete   %dl
    3711:	e9 62 fc ff ff       	jmpq   3378 <__cxa_finalize@plt+0x1078>
    3716:	66 2e 0f 1f 84 00 00 	nopw   %cs:0x0(%rax,%rax,1)
    371d:	00 00 00 
    3720:	41 83 fa 02          	cmp    $0x2,%r10d
    3724:	bb 0b 00 00 00       	mov    $0xb,%ebx
    3729:	b9 76 00 00 00       	mov    $0x76,%ecx
    372e:	0f 94 c2             	sete   %dl
    3731:	e9 42 fc ff ff       	jmpq   3378 <__cxa_finalize@plt+0x1078>
    3736:	66 2e 0f 1f 84 00 00 	nopw   %cs:0x0(%rax,%rax,1)
    373d:	00 00 00 
    3740:	41 0f b6 19          	movzbl (%r9),%ebx
    3744:	80 fb 7e             	cmp    $0x7e,%bl
    3747:	0f 87 fb fd ff ff    	ja     3548 <__cxa_finalize@plt+0x1248>
    374d:	48 8d 0d 70 33 00 00 	lea    0x3370(%rip),%rcx        # 6ac4 <_IO_stdin_used@@Base+0xac4>
    3754:	0f b6 d3             	movzbl %bl,%edx
    3757:	48 63 04 91          	movslq (%rcx,%rdx,4),%rax
    375b:	48 01 c8             	add    %rcx,%rax
    375e:	ff e0                	jmpq   *%rax
    3760:	31 c0                	xor    %eax,%eax
    3762:	44 0f b6 6c 24 0c    	movzbl 0xc(%rsp),%r13d
    3768:	88 44 24 0c          	mov    %al,0xc(%rsp)
    376c:	31 c0                	xor    %eax,%eax
    376e:	e9 3e fa ff ff       	jmpq   31b1 <__cxa_finalize@plt+0xeb1>
    3773:	0f 1f 44 00 00       	nopl   0x0(%rax,%rax,1)
    3778:	31 c0                	xor    %eax,%eax
    377a:	48 85 ed             	test   %rbp,%rbp
    377d:	0f 85 e5 02 00 00    	jne    3a68 <__cxa_finalize@plt+0x1768>
    3783:	44 0f b6 6c 24 0c    	movzbl 0xc(%rsp),%r13d
    3789:	31 d2                	xor    %edx,%edx
    378b:	88 44 24 0c          	mov    %al,0xc(%rsp)
    378f:	e9 04 fa ff ff       	jmpq   3198 <__cxa_finalize@plt+0xe98>
    3794:	0f 1f 40 00          	nopl   0x0(%rax)
    3798:	31 c0                	xor    %eax,%eax
    379a:	bb 20 00 00 00       	mov    $0x20,%ebx
    379f:	eb c1                	jmp    3762 <__cxa_finalize@plt+0x1462>
    37a1:	0f 1f 80 00 00 00 00 	nopl   0x0(%rax)
    37a8:	bb 62 00 00 00       	mov    $0x62,%ebx
    37ad:	e9 e3 fb ff ff       	jmpq   3395 <__cxa_finalize@plt+0x1095>
    37b2:	66 0f 1f 44 00 00    	nopw   0x0(%rax,%rax,1)
    37b8:	bb 61 00 00 00       	mov    $0x61,%ebx
    37bd:	e9 ab fc ff ff       	jmpq   346d <__cxa_finalize@plt+0x116d>
    37c2:	66 0f 1f 44 00 00    	nopw   0x0(%rax,%rax,1)
    37c8:	41 83 fa 02          	cmp    $0x2,%r10d
    37cc:	45 89 c5             	mov    %r8d,%r13d
    37cf:	4c 89 dd             	mov    %r11,%rbp
    37d2:	0f 94 c2             	sete   %dl
    37d5:	4d 85 ff             	test   %r15,%r15
    37d8:	75 0a                	jne    37e4 <__cxa_finalize@plt+0x14e4>
    37da:	84 54 24 43          	test   %dl,0x43(%rsp)
    37de:	0f 85 fa 09 00 00    	jne    41de <__cxa_finalize@plt+0x1ede>
    37e4:	0f b6 44 24 43       	movzbl 0x43(%rsp),%eax
    37e9:	83 f0 01             	xor    $0x1,%eax
    37ec:	20 c2                	and    %al,%dl
    37ee:	0f 84 42 09 00 00    	je     4136 <__cxa_finalize@plt+0x1e36>
    37f4:	80 bc 24 8d 00 00 00 	cmpb   $0x0,0x8d(%rsp)
    37fb:	00 
    37fc:	0f 84 36 09 00 00    	je     4138 <__cxa_finalize@plt+0x1e38>
    3802:	80 7c 24 42 00       	cmpb   $0x0,0x42(%rsp)
    3807:	0f 85 85 09 00 00    	jne    4192 <__cxa_finalize@plt+0x1e92>
    380d:	4d 85 e4             	test   %r12,%r12
    3810:	0f 94 c0             	sete   %al
    3813:	48 83 7c 24 50 00    	cmpq   $0x0,0x50(%rsp)
    3819:	0f 95 c2             	setne  %dl
    381c:	20 d0                	and    %dl,%al
    381e:	0f 84 ad 09 00 00    	je     41d1 <__cxa_finalize@plt+0x1ed1>
    3824:	48 8b 54 24 50       	mov    0x50(%rsp),%rdx
    3829:	48 8d 1d 15 2e 00 00 	lea    0x2e15(%rip),%rbx        # 6645 <_IO_stdin_used@@Base+0x645>
    3830:	4c 8b 64 24 50       	mov    0x50(%rsp),%r12
    3835:	41 c6 06 27          	movb   $0x27,(%r14)
    3839:	41 bb 02 00 00 00    	mov    $0x2,%r11d
    383f:	41 bf 01 00 00 00    	mov    $0x1,%r15d
    3845:	48 89 5c 24 48       	mov    %rbx,0x48(%rsp)
    384a:	48 c7 44 24 18 01 00 	movq   $0x1,0x18(%rsp)
    3851:	00 00 
    3853:	c6 44 24 43 00       	movb   $0x0,0x43(%rsp)
    3858:	88 84 24 8d 00 00 00 	mov    %al,0x8d(%rsp)
    385f:	48 89 54 24 50       	mov    %rdx,0x50(%rsp)
    3864:	e9 d5 f7 ff ff       	jmpq   303e <__cxa_finalize@plt+0xd3e>
    3869:	0f 1f 80 00 00 00 00 	nopl   0x0(%rax)
    3870:	f6 84 24 88 00 00 00 	testb  $0x4,0x88(%rsp)
    3877:	04 
    3878:	74 1e                	je     3898 <__cxa_finalize@plt+0x1598>
    387a:	48 8d 45 02          	lea    0x2(%rbp),%rax
    387e:	4c 39 d8             	cmp    %r11,%rax
    3881:	73 15                	jae    3898 <__cxa_finalize@plt+0x1598>
    3883:	48 8b 5c 24 10       	mov    0x10(%rsp),%rbx
    3888:	80 7c 2b 01 3f       	cmpb   $0x3f,0x1(%rbx,%rbp,1)
    388d:	0f 84 dd 06 00 00    	je     3f70 <__cxa_finalize@plt+0x1c70>
    3893:	0f 1f 44 00 00       	nopl   0x0(%rax,%rax,1)
    3898:	31 d2                	xor    %edx,%edx
    389a:	45 31 ed             	xor    %r13d,%r13d
    389d:	bb 3f 00 00 00       	mov    $0x3f,%ebx
    38a2:	e9 f1 f8 ff ff       	jmpq   3198 <__cxa_finalize@plt+0xe98>
    38a7:	66 0f 1f 84 00 00 00 	nopw   0x0(%rax,%rax,1)
    38ae:	00 00 
    38b0:	80 7c 24 43 00       	cmpb   $0x0,0x43(%rsp)
    38b5:	0f 85 65 08 00 00    	jne    4120 <__cxa_finalize@plt+0x1e20>
    38bb:	45 31 ed             	xor    %r13d,%r13d
    38be:	31 c0                	xor    %eax,%eax
    38c0:	bb 3f 00 00 00       	mov    $0x3f,%ebx
    38c5:	e9 d6 f9 ff ff       	jmpq   32a0 <__cxa_finalize@plt+0xfa0>
    38ca:	66 0f 1f 44 00 00    	nopw   0x0(%rax,%rax,1)
    38d0:	48 8d 84 24 b0 00 00 	lea    0xb0(%rsp),%rax
    38d7:	00 
    38d8:	48 c7 84 24 b0 00 00 	movq   $0x0,0xb0(%rsp)
    38df:	00 00 00 00 00 
    38e4:	48 89 44 24 70       	mov    %rax,0x70(%rsp)
    38e9:	49 83 fb ff          	cmp    $0xffffffffffffffff,%r11
    38ed:	75 2c                	jne    391b <__cxa_finalize@plt+0x161b>
    38ef:	48 8b 7c 24 10       	mov    0x10(%rsp),%rdi
    38f4:	44 89 54 24 38       	mov    %r10d,0x38(%rsp)
    38f9:	44 88 44 24 30       	mov    %r8b,0x30(%rsp)
    38fe:	4c 89 4c 24 28       	mov    %r9,0x28(%rsp)
    3903:	e8 d8 e7 ff ff       	callq  20e0 <strlen@plt>
    3908:	44 8b 54 24 38       	mov    0x38(%rsp),%r10d
    390d:	44 0f b6 44 24 30    	movzbl 0x30(%rsp),%r8d
    3913:	4c 8b 4c 24 28       	mov    0x28(%rsp),%r9
    3918:	49 89 c3             	mov    %rax,%r11
    391b:	31 f6                	xor    %esi,%esi
    391d:	48 8d 84 24 ac 00 00 	lea    0xac(%rsp),%rax
    3924:	00 
    3925:	88 9c 24 8f 00 00 00 	mov    %bl,0x8f(%rsp)
    392c:	4c 89 74 24 78       	mov    %r14,0x78(%rsp)
    3931:	48 89 f3             	mov    %rsi,%rbx
    3934:	4c 8b 74 24 70       	mov    0x70(%rsp),%r14
    3939:	48 89 44 24 38       	mov    %rax,0x38(%rsp)
    393e:	4c 89 8c 24 98 00 00 	mov    %r9,0x98(%rsp)
    3945:	00 
    3946:	44 88 84 24 8e 00 00 	mov    %r8b,0x8e(%rsp)
    394d:	00 
    394e:	48 89 6c 24 30       	mov    %rbp,0x30(%rsp)
    3953:	4c 89 bc 24 90 00 00 	mov    %r15,0x90(%rsp)
    395a:	00 
    395b:	4c 89 a4 24 80 00 00 	mov    %r12,0x80(%rsp)
    3962:	00 
    3963:	4c 89 5c 24 28       	mov    %r11,0x28(%rsp)
    3968:	44 89 54 24 44       	mov    %r10d,0x44(%rsp)
    396d:	eb 2b                	jmp    399a <__cxa_finalize@plt+0x169a>
    396f:	90                   	nop
    3970:	8b bc 24 ac 00 00 00 	mov    0xac(%rsp),%edi
    3977:	e8 54 e9 ff ff       	callq  22d0 <iswprint@plt>
    397c:	4c 89 f7             	mov    %r14,%rdi
    397f:	85 c0                	test   %eax,%eax
    3981:	b8 00 00 00 00       	mov    $0x0,%eax
    3986:	44 0f 44 e8          	cmove  %eax,%r13d
    398a:	48 01 eb             	add    %rbp,%rbx
    398d:	e8 2e e9 ff ff       	callq  22c0 <mbsinit@plt>
    3992:	85 c0                	test   %eax,%eax
    3994:	0f 85 57 05 00 00    	jne    3ef1 <__cxa_finalize@plt+0x1bf1>
    399a:	48 8b 44 24 30       	mov    0x30(%rsp),%rax
    399f:	48 8b 54 24 28       	mov    0x28(%rsp),%rdx
    39a4:	4c 89 f1             	mov    %r14,%rcx
    39a7:	48 8b 7c 24 38       	mov    0x38(%rsp),%rdi
    39ac:	4c 8d 3c 18          	lea    (%rax,%rbx,1),%r15
    39b0:	48 8b 44 24 10       	mov    0x10(%rsp),%rax
    39b5:	4c 29 fa             	sub    %r15,%rdx
    39b8:	4e 8d 24 38          	lea    (%rax,%r15,1),%r12
    39bc:	4c 89 e6             	mov    %r12,%rsi
    39bf:	e8 dc 1b 00 00       	callq  55a0 <__cxa_finalize@plt+0x32a0>
    39c4:	48 89 c5             	mov    %rax,%rbp
    39c7:	48 85 c0             	test   %rax,%rax
    39ca:	0f 84 21 05 00 00    	je     3ef1 <__cxa_finalize@plt+0x1bf1>
    39d0:	48 83 f8 ff          	cmp    $0xffffffffffffffff,%rax
    39d4:	0f 84 0a 06 00 00    	je     3fe4 <__cxa_finalize@plt+0x1ce4>
    39da:	48 83 f8 fe          	cmp    $0xfffffffffffffffe,%rax
    39de:	0f 84 45 06 00 00    	je     4029 <__cxa_finalize@plt+0x1d29>
    39e4:	83 7c 24 44 02       	cmpl   $0x2,0x44(%rsp)
    39e9:	75 85                	jne    3970 <__cxa_finalize@plt+0x1670>
    39eb:	80 7c 24 43 00       	cmpb   $0x0,0x43(%rsp)
    39f0:	0f 84 7a ff ff ff    	je     3970 <__cxa_finalize@plt+0x1670>
    39f6:	48 83 f8 01          	cmp    $0x1,%rax
    39fa:	0f 84 70 ff ff ff    	je     3970 <__cxa_finalize@plt+0x1670>
    3a00:	48 8b 74 24 10       	mov    0x10(%rsp),%rsi
    3a05:	4a 8d 44 3e 01       	lea    0x1(%rsi,%r15,1),%rax
    3a0a:	48 01 ee             	add    %rbp,%rsi
    3a0d:	4c 01 fe             	add    %r15,%rsi
    3a10:	eb 13                	jmp    3a25 <__cxa_finalize@plt+0x1725>
    3a12:	66 0f 1f 44 00 00    	nopw   0x0(%rax,%rax,1)
    3a18:	48 83 c0 01          	add    $0x1,%rax
    3a1c:	48 39 c6             	cmp    %rax,%rsi
    3a1f:	0f 84 4b ff ff ff    	je     3970 <__cxa_finalize@plt+0x1670>
    3a25:	0f b6 38             	movzbl (%rax),%edi
    3a28:	8d 4f a5             	lea    -0x5b(%rdi),%ecx
    3a2b:	80 f9 21             	cmp    $0x21,%cl
    3a2e:	77 e8                	ja     3a18 <__cxa_finalize@plt+0x1718>
    3a30:	ba 01 00 00 00       	mov    $0x1,%edx
    3a35:	48 d3 e2             	shl    %cl,%rdx
    3a38:	48 b9 2b 00 00 00 02 	movabs $0x20000002b,%rcx
    3a3f:	00 00 00 
    3a42:	48 85 ca             	test   %rcx,%rdx
    3a45:	74 d1                	je     3a18 <__cxa_finalize@plt+0x1718>
    3a47:	4c 8b 74 24 78       	mov    0x78(%rsp),%r14
    3a4c:	4c 8b a4 24 80 00 00 	mov    0x80(%rsp),%r12
    3a53:	00 
    3a54:	41 bb 02 00 00 00    	mov    $0x2,%r11d
    3a5a:	48 8b 6c 24 28       	mov    0x28(%rsp),%rbp
    3a5f:	e9 50 f9 ff ff       	jmpq   33b4 <__cxa_finalize@plt+0x10b4>
    3a64:	0f 1f 40 00          	nopl   0x0(%rax)
    3a68:	88 44 24 0c          	mov    %al,0xc(%rsp)
    3a6c:	45 31 ed             	xor    %r13d,%r13d
    3a6f:	e9 3b f7 ff ff       	jmpq   31af <__cxa_finalize@plt+0xeaf>
    3a74:	0f 1f 40 00          	nopl   0x0(%rax)
    3a78:	4c 89 f9             	mov    %r15,%rcx
    3a7b:	4d 39 fc             	cmp    %r15,%r12
    3a7e:	0f 86 6e fa ff ff    	jbe    34f2 <__cxa_finalize@plt+0x11f2>
    3a84:	44 89 c0             	mov    %r8d,%eax
    3a87:	e9 5e fa ff ff       	jmpq   34ea <__cxa_finalize@plt+0x11ea>
    3a8c:	4d 39 fc             	cmp    %r15,%r12
    3a8f:	76 05                	jbe    3a96 <__cxa_finalize@plt+0x1796>
    3a91:	43 c6 04 3e 27       	movb   $0x27,(%r14,%r15,1)
    3a96:	49 8d 47 01          	lea    0x1(%r15),%rax
    3a9a:	49 39 c4             	cmp    %rax,%r12
    3a9d:	76 06                	jbe    3aa5 <__cxa_finalize@plt+0x17a5>
    3a9f:	43 c6 44 3e 01 5c    	movb   $0x5c,0x1(%r14,%r15,1)
    3aa5:	49 8d 47 02          	lea    0x2(%r15),%rax
    3aa9:	49 39 c4             	cmp    %rax,%r12
    3aac:	0f 86 9c 07 00 00    	jbe    424e <__cxa_finalize@plt+0x1f4e>
    3ab2:	4c 89 e2             	mov    %r12,%rdx
    3ab5:	43 c6 44 3e 02 27    	movb   $0x27,0x2(%r14,%r15,1)
    3abb:	4c 8b 64 24 50       	mov    0x50(%rsp),%r12
    3ac0:	e9 bd f7 ff ff       	jmpq   3282 <__cxa_finalize@plt+0xf82>
    3ac5:	48 83 c5 01          	add    $0x1,%rbp
    3ac9:	e9 82 f5 ff ff       	jmpq   3050 <__cxa_finalize@plt+0xd50>
    3ace:	0f b6 54 24 08       	movzbl 0x8(%rsp),%edx
    3ad3:	45 31 ed             	xor    %r13d,%r13d
    3ad6:	48 89 f9             	mov    %rdi,%rcx
    3ad9:	44 88 6c 24 28       	mov    %r13b,0x28(%rsp)
    3ade:	31 f6                	xor    %esi,%esi
    3ae0:	44 0f b6 6c 24 43    	movzbl 0x43(%rsp),%r13d
    3ae6:	48 01 e9             	add    %rbp,%rcx
    3ae9:	0f b6 7c 24 0c       	movzbl 0xc(%rsp),%edi
    3aee:	4c 8b 4c 24 10       	mov    0x10(%rsp),%r9
    3af3:	e9 b6 00 00 00       	jmpq   3bae <__cxa_finalize@plt+0x18ae>
    3af8:	0f 1f 84 00 00 00 00 	nopl   0x0(%rax,%rax,1)
    3aff:	00 
    3b00:	41 83 fa 02          	cmp    $0x2,%r10d
    3b04:	0f 94 c0             	sete   %al
    3b07:	45 84 ed             	test   %r13b,%r13b
    3b0a:	0f 85 01 01 00 00    	jne    3c11 <__cxa_finalize@plt+0x1911>
    3b10:	44 89 c6             	mov    %r8d,%esi
    3b13:	83 f6 01             	xor    $0x1,%esi
    3b16:	40 20 f0             	and    %sil,%al
    3b19:	74 2f                	je     3b4a <__cxa_finalize@plt+0x184a>
    3b1b:	4d 39 fc             	cmp    %r15,%r12
    3b1e:	76 05                	jbe    3b25 <__cxa_finalize@plt+0x1825>
    3b20:	43 c6 04 3e 27       	movb   $0x27,(%r14,%r15,1)
    3b25:	49 8d 77 01          	lea    0x1(%r15),%rsi
    3b29:	49 39 f4             	cmp    %rsi,%r12
    3b2c:	76 06                	jbe    3b34 <__cxa_finalize@plt+0x1834>
    3b2e:	43 c6 44 3e 01 24    	movb   $0x24,0x1(%r14,%r15,1)
    3b34:	49 8d 77 02          	lea    0x2(%r15),%rsi
    3b38:	49 39 f4             	cmp    %rsi,%r12
    3b3b:	76 06                	jbe    3b43 <__cxa_finalize@plt+0x1843>
    3b3d:	43 c6 44 3e 02 27    	movb   $0x27,0x2(%r14,%r15,1)
    3b43:	49 83 c7 03          	add    $0x3,%r15
    3b47:	41 89 c0             	mov    %eax,%r8d
    3b4a:	4d 39 fc             	cmp    %r15,%r12
    3b4d:	76 05                	jbe    3b54 <__cxa_finalize@plt+0x1854>
    3b4f:	43 c6 04 3e 5c       	movb   $0x5c,(%r14,%r15,1)
    3b54:	49 8d 47 01          	lea    0x1(%r15),%rax
    3b58:	49 39 c4             	cmp    %rax,%r12
    3b5b:	76 0d                	jbe    3b6a <__cxa_finalize@plt+0x186a>
    3b5d:	89 d8                	mov    %ebx,%eax
    3b5f:	c0 e8 06             	shr    $0x6,%al
    3b62:	83 c0 30             	add    $0x30,%eax
    3b65:	43 88 44 3e 01       	mov    %al,0x1(%r14,%r15,1)
    3b6a:	49 8d 47 02          	lea    0x2(%r15),%rax
    3b6e:	49 39 c4             	cmp    %rax,%r12
    3b71:	76 10                	jbe    3b83 <__cxa_finalize@plt+0x1883>
    3b73:	89 d8                	mov    %ebx,%eax
    3b75:	c0 e8 03             	shr    $0x3,%al
    3b78:	83 e0 07             	and    $0x7,%eax
    3b7b:	83 c0 30             	add    $0x30,%eax
    3b7e:	43 88 44 3e 02       	mov    %al,0x2(%r14,%r15,1)
    3b83:	83 e3 07             	and    $0x7,%ebx
    3b86:	48 83 c5 01          	add    $0x1,%rbp
    3b8a:	49 83 c7 03          	add    $0x3,%r15
    3b8e:	83 c3 30             	add    $0x30,%ebx
    3b91:	48 39 cd             	cmp    %rcx,%rbp
    3b94:	0f 83 36 03 00 00    	jae    3ed0 <__cxa_finalize@plt+0x1bd0>
    3b9a:	89 d6                	mov    %edx,%esi
    3b9c:	4d 39 fc             	cmp    %r15,%r12
    3b9f:	76 04                	jbe    3ba5 <__cxa_finalize@plt+0x18a5>
    3ba1:	43 88 1c 3e          	mov    %bl,(%r14,%r15,1)
    3ba5:	41 0f b6 1c 29       	movzbl (%r9,%rbp,1),%ebx
    3baa:	49 83 c7 01          	add    $0x1,%r15
    3bae:	84 d2                	test   %dl,%dl
    3bb0:	0f 85 4a ff ff ff    	jne    3b00 <__cxa_finalize@plt+0x1800>
    3bb6:	89 f0                	mov    %esi,%eax
    3bb8:	83 f0 01             	xor    $0x1,%eax
    3bbb:	44 21 c0             	and    %r8d,%eax
    3bbe:	40 84 ff             	test   %dil,%dil
    3bc1:	74 0e                	je     3bd1 <__cxa_finalize@plt+0x18d1>
    3bc3:	4d 39 fc             	cmp    %r15,%r12
    3bc6:	76 05                	jbe    3bcd <__cxa_finalize@plt+0x18cd>
    3bc8:	43 c6 04 3e 5c       	movb   $0x5c,(%r14,%r15,1)
    3bcd:	49 83 c7 01          	add    $0x1,%r15
    3bd1:	48 83 c5 01          	add    $0x1,%rbp
    3bd5:	48 39 cd             	cmp    %rcx,%rbp
    3bd8:	73 2c                	jae    3c06 <__cxa_finalize@plt+0x1906>
    3bda:	84 c0                	test   %al,%al
    3bdc:	0f 84 08 03 00 00    	je     3eea <__cxa_finalize@plt+0x1bea>
    3be2:	4d 39 fc             	cmp    %r15,%r12
    3be5:	76 05                	jbe    3bec <__cxa_finalize@plt+0x18ec>
    3be7:	43 c6 04 3e 27       	movb   $0x27,(%r14,%r15,1)
    3bec:	49 8d 47 01          	lea    0x1(%r15),%rax
    3bf0:	49 39 c4             	cmp    %rax,%r12
    3bf3:	76 06                	jbe    3bfb <__cxa_finalize@plt+0x18fb>
    3bf5:	43 c6 44 3e 01 27    	movb   $0x27,0x1(%r14,%r15,1)
    3bfb:	49 83 c7 02          	add    $0x2,%r15
    3bff:	31 ff                	xor    %edi,%edi
    3c01:	45 31 c0             	xor    %r8d,%r8d
    3c04:	eb 96                	jmp    3b9c <__cxa_finalize@plt+0x189c>
    3c06:	44 0f b6 6c 24 28    	movzbl 0x28(%rsp),%r13d
    3c0c:	e9 ab f6 ff ff       	jmpq   32bc <__cxa_finalize@plt+0xfbc>
    3c11:	4c 89 dd             	mov    %r11,%rbp
    3c14:	88 44 24 08          	mov    %al,0x8(%rsp)
    3c18:	45 89 d3             	mov    %r10d,%r11d
    3c1b:	e9 94 f7 ff ff       	jmpq   33b4 <__cxa_finalize@plt+0x10b4>
    3c20:	49 83 c7 04          	add    $0x4,%r15
    3c24:	41 89 c0             	mov    %eax,%r8d
    3c27:	45 31 ed             	xor    %r13d,%r13d
    3c2a:	bb 30 00 00 00       	mov    $0x30,%ebx
    3c2f:	e9 6c f6 ff ff       	jmpq   32a0 <__cxa_finalize@plt+0xfa0>
    3c34:	85 db                	test   %ebx,%ebx
    3c36:	0f 85 c1 f3 ff ff    	jne    2ffd <__cxa_finalize@plt+0xcfd>
    3c3c:	c6 44 24 08 01       	movb   $0x1,0x8(%rsp)
    3c41:	4d 85 e4             	test   %r12,%r12
    3c44:	0f 85 e4 05 00 00    	jne    422e <__cxa_finalize@plt+0x1f2e>
    3c4a:	48 8d 05 f4 29 00 00 	lea    0x29f4(%rip),%rax        # 6645 <_IO_stdin_used@@Base+0x645>
    3c51:	c6 44 24 42 01       	movb   $0x1,0x42(%rsp)
    3c56:	45 31 ed             	xor    %r13d,%r13d
    3c59:	41 bf 01 00 00 00    	mov    $0x1,%r15d
    3c5f:	48 c7 44 24 50 00 00 	movq   $0x0,0x50(%rsp)
    3c66:	00 00 
    3c68:	41 bb 02 00 00 00    	mov    $0x2,%r11d
    3c6e:	c6 84 24 8d 00 00 00 	movb   $0x0,0x8d(%rsp)
    3c75:	00 
    3c76:	c6 44 24 43 00       	movb   $0x0,0x43(%rsp)
    3c7b:	48 c7 44 24 18 01 00 	movq   $0x1,0x18(%rsp)
    3c82:	00 00 
    3c84:	48 89 44 24 48       	mov    %rax,0x48(%rsp)
    3c89:	e9 b0 f3 ff ff       	jmpq   303e <__cxa_finalize@plt+0xd3e>
    3c8e:	85 db                	test   %ebx,%ebx
    3c90:	0f 85 4a 04 00 00    	jne    40e0 <__cxa_finalize@plt+0x1de0>
    3c96:	4d 85 e4             	test   %r12,%r12
    3c99:	0f 84 a3 02 00 00    	je     3f42 <__cxa_finalize@plt+0x1c42>
    3c9f:	41 c6 06 22          	movb   $0x22,(%r14)
    3ca3:	45 31 ed             	xor    %r13d,%r13d
    3ca6:	c6 44 24 42 01       	movb   $0x1,0x42(%rsp)
    3cab:	c6 84 24 8d 00 00 00 	movb   $0x0,0x8d(%rsp)
    3cb2:	00 
    3cb3:	48 c7 44 24 50 00 00 	movq   $0x0,0x50(%rsp)
    3cba:	00 00 
    3cbc:	48 8d 05 71 29 00 00 	lea    0x2971(%rip),%rax        # 6634 <_IO_stdin_used@@Base+0x634>
    3cc3:	c6 44 24 43 00       	movb   $0x0,0x43(%rsp)
    3cc8:	41 bf 01 00 00 00    	mov    $0x1,%r15d
    3cce:	c6 44 24 08 01       	movb   $0x1,0x8(%rsp)
    3cd3:	48 c7 44 24 18 01 00 	movq   $0x1,0x18(%rsp)
    3cda:	00 00 
    3cdc:	48 89 44 24 48       	mov    %rax,0x48(%rsp)
    3ce1:	e9 58 f3 ff ff       	jmpq   303e <__cxa_finalize@plt+0xd3e>
    3ce6:	41 83 fb 0a          	cmp    $0xa,%r11d
    3cea:	74 37                	je     3d23 <__cxa_finalize@plt+0x1a23>
    3cec:	44 89 de             	mov    %r11d,%esi
    3cef:	48 8d 3d 51 29 00 00 	lea    0x2951(%rip),%rdi        # 6647 <_IO_stdin_used@@Base+0x647>
    3cf6:	44 89 5c 24 08       	mov    %r11d,0x8(%rsp)
    3cfb:	e8 50 f1 ff ff       	callq  2e50 <__cxa_finalize@plt+0xb50>
    3d00:	44 8b 5c 24 08       	mov    0x8(%rsp),%r11d
    3d05:	48 8d 3d 39 29 00 00 	lea    0x2939(%rip),%rdi        # 6645 <_IO_stdin_used@@Base+0x645>
    3d0c:	48 89 44 24 68       	mov    %rax,0x68(%rsp)
    3d11:	44 89 de             	mov    %r11d,%esi
    3d14:	e8 37 f1 ff ff       	callq  2e50 <__cxa_finalize@plt+0xb50>
    3d19:	44 8b 5c 24 08       	mov    0x8(%rsp),%r11d
    3d1e:	48 89 44 24 60       	mov    %rax,0x60(%rsp)
    3d23:	45 31 ff             	xor    %r15d,%r15d
    3d26:	85 db                	test   %ebx,%ebx
    3d28:	0f 84 77 03 00 00    	je     40a5 <__cxa_finalize@plt+0x1da5>
    3d2e:	48 8b 5c 24 60       	mov    0x60(%rsp),%rbx
    3d33:	44 89 5c 24 0c       	mov    %r11d,0xc(%rsp)
    3d38:	45 31 ed             	xor    %r13d,%r13d
    3d3b:	48 89 df             	mov    %rbx,%rdi
    3d3e:	e8 9d e3 ff ff       	callq  20e0 <strlen@plt>
    3d43:	48 89 5c 24 48       	mov    %rbx,0x48(%rsp)
    3d48:	44 8b 5c 24 0c       	mov    0xc(%rsp),%r11d
    3d4d:	48 89 44 24 18       	mov    %rax,0x18(%rsp)
    3d52:	c6 44 24 42 01       	movb   $0x1,0x42(%rsp)
    3d57:	c6 84 24 8d 00 00 00 	movb   $0x0,0x8d(%rsp)
    3d5e:	00 
    3d5f:	48 c7 44 24 50 00 00 	movq   $0x0,0x50(%rsp)
    3d66:	00 00 
    3d68:	c6 44 24 08 01       	movb   $0x1,0x8(%rsp)
    3d6d:	e9 cc f2 ff ff       	jmpq   303e <__cxa_finalize@plt+0xd3e>
    3d72:	48 8d 05 bb 28 00 00 	lea    0x28bb(%rip),%rax        # 6634 <_IO_stdin_used@@Base+0x634>
    3d79:	c6 44 24 42 01       	movb   $0x1,0x42(%rsp)
    3d7e:	45 31 ed             	xor    %r13d,%r13d
    3d81:	45 31 ff             	xor    %r15d,%r15d
    3d84:	c6 84 24 8d 00 00 00 	movb   $0x0,0x8d(%rsp)
    3d8b:	00 
    3d8c:	41 bb 05 00 00 00    	mov    $0x5,%r11d
    3d92:	48 c7 44 24 50 00 00 	movq   $0x0,0x50(%rsp)
    3d99:	00 00 
    3d9b:	c6 44 24 43 01       	movb   $0x1,0x43(%rsp)
    3da0:	c6 44 24 08 01       	movb   $0x1,0x8(%rsp)
    3da5:	48 c7 44 24 18 01 00 	movq   $0x1,0x18(%rsp)
    3dac:	00 00 
    3dae:	48 89 44 24 48       	mov    %rax,0x48(%rsp)
    3db3:	e9 86 f2 ff ff       	jmpq   303e <__cxa_finalize@plt+0xd3e>
    3db8:	c6 44 24 42 01       	movb   $0x1,0x42(%rsp)
    3dbd:	45 31 ed             	xor    %r13d,%r13d
    3dc0:	45 31 ff             	xor    %r15d,%r15d
    3dc3:	c6 84 24 8d 00 00 00 	movb   $0x0,0x8d(%rsp)
    3dca:	00 
    3dcb:	48 c7 44 24 50 00 00 	movq   $0x0,0x50(%rsp)
    3dd2:	00 00 
    3dd4:	c6 44 24 43 00       	movb   $0x0,0x43(%rsp)
    3dd9:	c6 44 24 08 01       	movb   $0x1,0x8(%rsp)
    3dde:	48 c7 44 24 18 00 00 	movq   $0x0,0x18(%rsp)
    3de5:	00 00 
    3de7:	48 c7 44 24 48 00 00 	movq   $0x0,0x48(%rsp)
    3dee:	00 00 
    3df0:	e9 49 f2 ff ff       	jmpq   303e <__cxa_finalize@plt+0xd3e>
    3df5:	c6 44 24 42 01       	movb   $0x1,0x42(%rsp)
    3dfa:	45 31 ed             	xor    %r13d,%r13d
    3dfd:	45 31 ff             	xor    %r15d,%r15d
    3e00:	c6 84 24 8d 00 00 00 	movb   $0x0,0x8d(%rsp)
    3e07:	00 
    3e08:	48 c7 44 24 50 00 00 	movq   $0x0,0x50(%rsp)
    3e0f:	00 00 
    3e11:	c6 44 24 43 00       	movb   $0x0,0x43(%rsp)
    3e16:	c6 44 24 08 00       	movb   $0x0,0x8(%rsp)
    3e1b:	48 c7 44 24 18 00 00 	movq   $0x0,0x18(%rsp)
    3e22:	00 00 
    3e24:	48 c7 44 24 48 00 00 	movq   $0x0,0x48(%rsp)
    3e2b:	00 00 
    3e2d:	e9 0c f2 ff ff       	jmpq   303e <__cxa_finalize@plt+0xd3e>
    3e32:	c6 44 24 42 01       	movb   $0x1,0x42(%rsp)
    3e37:	45 31 ed             	xor    %r13d,%r13d
    3e3a:	c6 84 24 8d 00 00 00 	movb   $0x0,0x8d(%rsp)
    3e41:	00 
    3e42:	48 c7 44 24 50 00 00 	movq   $0x0,0x50(%rsp)
    3e49:	00 00 
    3e4b:	c6 44 24 43 01       	movb   $0x1,0x43(%rsp)
    3e50:	c6 44 24 08 01       	movb   $0x1,0x8(%rsp)
    3e55:	e9 c6 f1 ff ff       	jmpq   3020 <__cxa_finalize@plt+0xd20>
    3e5a:	0f b6 44 24 0c       	movzbl 0xc(%rsp),%eax
    3e5f:	e9 36 f9 ff ff       	jmpq   379a <__cxa_finalize@plt+0x149a>
    3e64:	31 d2                	xor    %edx,%edx
    3e66:	45 31 ed             	xor    %r13d,%r13d
    3e69:	bb 62 00 00 00       	mov    $0x62,%ebx
    3e6e:	e9 76 f3 ff ff       	jmpq   31e9 <__cxa_finalize@plt+0xee9>
    3e73:	bb 61 00 00 00       	mov    $0x61,%ebx
    3e78:	e9 fb f5 ff ff       	jmpq   3478 <__cxa_finalize@plt+0x1178>
    3e7d:	0f b6 44 24 0c       	movzbl 0xc(%rsp),%eax
    3e82:	e9 db f8 ff ff       	jmpq   3762 <__cxa_finalize@plt+0x1462>
    3e87:	0f b6 44 24 0c       	movzbl 0xc(%rsp),%eax
    3e8c:	e9 e9 f8 ff ff       	jmpq   377a <__cxa_finalize@plt+0x147a>
    3e91:	4d 39 fc             	cmp    %r15,%r12
    3e94:	76 05                	jbe    3e9b <__cxa_finalize@plt+0x1b9b>
    3e96:	43 c6 04 3e 30       	movb   $0x30,(%r14,%r15,1)
    3e9b:	48 8d 41 02          	lea    0x2(%rcx),%rax
    3e9f:	49 39 c4             	cmp    %rax,%r12
    3ea2:	76 06                	jbe    3eaa <__cxa_finalize@plt+0x1baa>
    3ea4:	41 c6 44 0e 02 30    	movb   $0x30,0x2(%r14,%rcx,1)
    3eaa:	4c 8d 79 03          	lea    0x3(%rcx),%r15
    3eae:	bb 30 00 00 00       	mov    $0x30,%ebx
    3eb3:	e9 6f f6 ff ff       	jmpq   3527 <__cxa_finalize@plt+0x1227>
    3eb8:	85 db                	test   %ebx,%ebx
    3eba:	0f 85 2e 03 00 00    	jne    41ee <__cxa_finalize@plt+0x1eee>
    3ec0:	c6 44 24 08 00       	movb   $0x0,0x8(%rsp)
    3ec5:	e9 77 fd ff ff       	jmpq   3c41 <__cxa_finalize@plt+0x1941>
    3eca:	66 0f 1f 44 00 00    	nopw   0x0(%rax,%rax,1)
    3ed0:	44 0f b6 6c 24 28    	movzbl 0x28(%rsp),%r13d
    3ed6:	e9 59 f3 ff ff       	jmpq   3234 <__cxa_finalize@plt+0xf34>
    3edb:	48 83 c5 01          	add    $0x1,%rbp
    3edf:	44 89 c0             	mov    %r8d,%eax
    3ee2:	45 31 ed             	xor    %r13d,%r13d
    3ee5:	e9 d2 f3 ff ff       	jmpq   32bc <__cxa_finalize@plt+0xfbc>
    3eea:	31 ff                	xor    %edi,%edi
    3eec:	e9 ab fc ff ff       	jmpq   3b9c <__cxa_finalize@plt+0x189c>
    3ef1:	48 89 df             	mov    %rbx,%rdi
    3ef4:	44 89 ea             	mov    %r13d,%edx
    3ef7:	48 8b 6c 24 30       	mov    0x30(%rsp),%rbp
    3efc:	4c 8b 74 24 78       	mov    0x78(%rsp),%r14
    3f01:	0f b6 9c 24 8f 00 00 	movzbl 0x8f(%rsp),%ebx
    3f08:	00 
    3f09:	4c 8b 5c 24 28       	mov    0x28(%rsp),%r11
    3f0e:	83 f2 01             	xor    $0x1,%edx
    3f11:	44 0f b6 84 24 8e 00 	movzbl 0x8e(%rsp),%r8d
    3f18:	00 00 
    3f1a:	4c 8b bc 24 90 00 00 	mov    0x90(%rsp),%r15
    3f21:	00 
    3f22:	4c 8b a4 24 80 00 00 	mov    0x80(%rsp),%r12
    3f29:	00 
    3f2a:	44 8b 54 24 44       	mov    0x44(%rsp),%r10d
    3f2f:	22 54 24 08          	and    0x8(%rsp),%dl
    3f33:	48 83 ff 01          	cmp    $0x1,%rdi
    3f37:	0f 87 99 fb ff ff    	ja     3ad6 <__cxa_finalize@plt+0x17d6>
    3f3d:	e9 59 f6 ff ff       	jmpq   359b <__cxa_finalize@plt+0x129b>
    3f42:	48 c7 44 24 50 00 00 	movq   $0x0,0x50(%rsp)
    3f49:	00 00 
    3f4b:	45 31 ed             	xor    %r13d,%r13d
    3f4e:	c6 44 24 42 01       	movb   $0x1,0x42(%rsp)
    3f53:	c6 84 24 8d 00 00 00 	movb   $0x0,0x8d(%rsp)
    3f5a:	00 
    3f5b:	e9 5c fd ff ff       	jmpq   3cbc <__cxa_finalize@plt+0x19bc>
    3f60:	44 89 e8             	mov    %r13d,%eax
    3f63:	bb 30 00 00 00       	mov    $0x30,%ebx
    3f68:	45 31 ed             	xor    %r13d,%r13d
    3f6b:	e9 30 f3 ff ff       	jmpq   32a0 <__cxa_finalize@plt+0xfa0>
    3f70:	0f b6 1c 03          	movzbl (%rbx,%rax,1),%ebx
    3f74:	80 fb 3e             	cmp    $0x3e,%bl
    3f77:	0f 87 1b f9 ff ff    	ja     3898 <__cxa_finalize@plt+0x1598>
    3f7d:	48 be 00 00 00 00 82 	movabs $0x7000a38200000000,%rsi
    3f84:	a3 00 70 
    3f87:	48 0f a3 de          	bt     %rbx,%rsi
    3f8b:	0f 83 07 f9 ff ff    	jae    3898 <__cxa_finalize@plt+0x1598>
    3f91:	80 7c 24 43 00       	cmpb   $0x0,0x43(%rsp)
    3f96:	0f 85 8f 01 00 00    	jne    412b <__cxa_finalize@plt+0x1e2b>
    3f9c:	4d 39 fc             	cmp    %r15,%r12
    3f9f:	76 05                	jbe    3fa6 <__cxa_finalize@plt+0x1ca6>
    3fa1:	43 c6 04 3e 3f       	movb   $0x3f,(%r14,%r15,1)
    3fa6:	49 8d 57 01          	lea    0x1(%r15),%rdx
    3faa:	49 39 d4             	cmp    %rdx,%r12
    3fad:	76 06                	jbe    3fb5 <__cxa_finalize@plt+0x1cb5>
    3faf:	43 c6 44 3e 01 22    	movb   $0x22,0x1(%r14,%r15,1)
    3fb5:	49 8d 57 02          	lea    0x2(%r15),%rdx
    3fb9:	49 39 d4             	cmp    %rdx,%r12
    3fbc:	76 06                	jbe    3fc4 <__cxa_finalize@plt+0x1cc4>
    3fbe:	43 c6 44 3e 02 22    	movb   $0x22,0x2(%r14,%r15,1)
    3fc4:	49 8d 57 03          	lea    0x3(%r15),%rdx
    3fc8:	49 39 d4             	cmp    %rdx,%r12
    3fcb:	76 06                	jbe    3fd3 <__cxa_finalize@plt+0x1cd3>
    3fcd:	43 c6 44 3e 03 3f    	movb   $0x3f,0x3(%r14,%r15,1)
    3fd3:	49 83 c7 04          	add    $0x4,%r15
    3fd7:	31 d2                	xor    %edx,%edx
    3fd9:	45 31 ed             	xor    %r13d,%r13d
    3fdc:	48 89 c5             	mov    %rax,%rbp
    3fdf:	e9 43 f5 ff ff       	jmpq   3527 <__cxa_finalize@plt+0x1227>
    3fe4:	48 89 df             	mov    %rbx,%rdi
    3fe7:	48 8b 6c 24 30       	mov    0x30(%rsp),%rbp
    3fec:	4c 8b 74 24 78       	mov    0x78(%rsp),%r14
    3ff1:	45 31 ed             	xor    %r13d,%r13d
    3ff4:	44 0f b6 84 24 8e 00 	movzbl 0x8e(%rsp),%r8d
    3ffb:	00 00 
    3ffd:	0f b6 9c 24 8f 00 00 	movzbl 0x8f(%rsp),%ebx
    4004:	00 
    4005:	4c 8b bc 24 90 00 00 	mov    0x90(%rsp),%r15
    400c:	00 
    400d:	4c 8b a4 24 80 00 00 	mov    0x80(%rsp),%r12
    4014:	00 
    4015:	4c 8b 5c 24 28       	mov    0x28(%rsp),%r11
    401a:	44 8b 54 24 44       	mov    0x44(%rsp),%r10d
    401f:	0f b6 54 24 08       	movzbl 0x8(%rsp),%edx
    4024:	e9 0a ff ff ff       	jmpq   3f33 <__cxa_finalize@plt+0x1c33>
    4029:	4c 8b 5c 24 28       	mov    0x28(%rsp),%r11
    402e:	4c 89 fe             	mov    %r15,%rsi
    4031:	4c 89 e1             	mov    %r12,%rcx
    4034:	48 89 d8             	mov    %rbx,%rax
    4037:	48 89 df             	mov    %rbx,%rdi
    403a:	48 8b 6c 24 30       	mov    0x30(%rsp),%rbp
    403f:	4c 8b 74 24 78       	mov    0x78(%rsp),%r14
    4044:	4c 8b 8c 24 98 00 00 	mov    0x98(%rsp),%r9
    404b:	00 
    404c:	0f b6 9c 24 8f 00 00 	movzbl 0x8f(%rsp),%ebx
    4053:	00 
    4054:	44 0f b6 84 24 8e 00 	movzbl 0x8e(%rsp),%r8d
    405b:	00 00 
    405d:	4c 8b bc 24 90 00 00 	mov    0x90(%rsp),%r15
    4064:	00 
    4065:	4c 8b a4 24 80 00 00 	mov    0x80(%rsp),%r12
    406c:	00 
    406d:	44 8b 54 24 44       	mov    0x44(%rsp),%r10d
    4072:	4c 39 de             	cmp    %r11,%rsi
    4075:	73 21                	jae    4098 <__cxa_finalize@plt+0x1d98>
    4077:	80 39 00             	cmpb   $0x0,(%rcx)
    407a:	75 0b                	jne    4087 <__cxa_finalize@plt+0x1d87>
    407c:	eb 1a                	jmp    4098 <__cxa_finalize@plt+0x1d98>
    407e:	66 90                	xchg   %ax,%ax
    4080:	41 80 3c 01 00       	cmpb   $0x0,(%r9,%rax,1)
    4085:	74 0e                	je     4095 <__cxa_finalize@plt+0x1d95>
    4087:	48 83 c0 01          	add    $0x1,%rax
    408b:	48 8d 54 05 00       	lea    0x0(%rbp,%rax,1),%rdx
    4090:	4c 39 da             	cmp    %r11,%rdx
    4093:	72 eb                	jb     4080 <__cxa_finalize@plt+0x1d80>
    4095:	48 89 c7             	mov    %rax,%rdi
    4098:	0f b6 54 24 08       	movzbl 0x8(%rsp),%edx
    409d:	45 31 ed             	xor    %r13d,%r13d
    40a0:	e9 8e fe ff ff       	jmpq   3f33 <__cxa_finalize@plt+0x1c33>
    40a5:	48 8b 54 24 68       	mov    0x68(%rsp),%rdx
    40aa:	0f b6 02             	movzbl (%rdx),%eax
    40ad:	84 c0                	test   %al,%al
    40af:	0f 84 79 fc ff ff    	je     3d2e <__cxa_finalize@plt+0x1a2e>
    40b5:	0f 1f 00             	nopl   (%rax)
    40b8:	4d 39 fc             	cmp    %r15,%r12
    40bb:	76 04                	jbe    40c1 <__cxa_finalize@plt+0x1dc1>
    40bd:	43 88 04 3e          	mov    %al,(%r14,%r15,1)
    40c1:	49 83 c7 01          	add    $0x1,%r15
    40c5:	42 0f b6 04 3a       	movzbl (%rdx,%r15,1),%eax
    40ca:	84 c0                	test   %al,%al
    40cc:	75 ea                	jne    40b8 <__cxa_finalize@plt+0x1db8>
    40ce:	e9 5b fc ff ff       	jmpq   3d2e <__cxa_finalize@plt+0x1a2e>
    40d3:	4c 89 dd             	mov    %r11,%rbp
    40d6:	31 c0                	xor    %eax,%eax
    40d8:	45 89 d3             	mov    %r10d,%r11d
    40db:	e9 d0 f2 ff ff       	jmpq   33b0 <__cxa_finalize@plt+0x10b0>
    40e0:	48 8d 05 4d 25 00 00 	lea    0x254d(%rip),%rax        # 6634 <_IO_stdin_used@@Base+0x634>
    40e7:	c6 44 24 42 01       	movb   $0x1,0x42(%rsp)
    40ec:	45 31 ed             	xor    %r13d,%r13d
    40ef:	45 31 ff             	xor    %r15d,%r15d
    40f2:	c6 84 24 8d 00 00 00 	movb   $0x0,0x8d(%rsp)
    40f9:	00 
    40fa:	48 c7 44 24 50 00 00 	movq   $0x0,0x50(%rsp)
    4101:	00 00 
    4103:	c6 44 24 43 01       	movb   $0x1,0x43(%rsp)
    4108:	c6 44 24 08 01       	movb   $0x1,0x8(%rsp)
    410d:	48 c7 44 24 18 01 00 	movq   $0x1,0x18(%rsp)
    4114:	00 00 
    4116:	48 89 44 24 48       	mov    %rax,0x48(%rsp)
    411b:	e9 1e ef ff ff       	jmpq   303e <__cxa_finalize@plt+0xd3e>
    4120:	4c 89 dd             	mov    %r11,%rbp
    4123:	45 89 d3             	mov    %r10d,%r11d
    4126:	e9 89 f2 ff ff       	jmpq   33b4 <__cxa_finalize@plt+0x10b4>
    412b:	4c 89 dd             	mov    %r11,%rbp
    412e:	45 89 d3             	mov    %r10d,%r11d
    4131:	e9 8c f2 ff ff       	jmpq   33c2 <__cxa_finalize@plt+0x10c2>
    4136:	89 c2                	mov    %eax,%edx
    4138:	48 8b 44 24 48       	mov    0x48(%rsp),%rax
    413d:	48 85 c0             	test   %rax,%rax
    4140:	74 29                	je     416b <__cxa_finalize@plt+0x1e6b>
    4142:	84 d2                	test   %dl,%dl
    4144:	74 25                	je     416b <__cxa_finalize@plt+0x1e6b>
    4146:	0f b6 08             	movzbl (%rax),%ecx
    4149:	84 c9                	test   %cl,%cl
    414b:	74 1e                	je     416b <__cxa_finalize@plt+0x1e6b>
    414d:	4c 89 fa             	mov    %r15,%rdx
    4150:	4c 29 f8             	sub    %r15,%rax
    4153:	49 39 d4             	cmp    %rdx,%r12
    4156:	76 04                	jbe    415c <__cxa_finalize@plt+0x1e5c>
    4158:	41 88 0c 16          	mov    %cl,(%r14,%rdx,1)
    415c:	48 83 c2 01          	add    $0x1,%rdx
    4160:	0f b6 0c 10          	movzbl (%rax,%rdx,1),%ecx
    4164:	84 c9                	test   %cl,%cl
    4166:	75 eb                	jne    4153 <__cxa_finalize@plt+0x1e53>
    4168:	49 89 d7             	mov    %rdx,%r15
    416b:	4d 39 fc             	cmp    %r15,%r12
    416e:	0f 86 85 f2 ff ff    	jbe    33f9 <__cxa_finalize@plt+0x10f9>
    4174:	43 c6 04 3e 00       	movb   $0x0,(%r14,%r15,1)
    4179:	e9 7b f2 ff ff       	jmpq   33f9 <__cxa_finalize@plt+0x10f9>
    417e:	41 83 fa 02          	cmp    $0x2,%r10d
    4182:	4c 89 dd             	mov    %r11,%rbp
    4185:	45 89 d3             	mov    %r10d,%r11d
    4188:	0f 94 44 24 08       	sete   0x8(%rsp)
    418d:	e9 22 f2 ff ff       	jmpq   33b4 <__cxa_finalize@plt+0x10b4>
    4192:	48 83 ec 08          	sub    $0x8,%rsp
    4196:	41 b8 05 00 00 00    	mov    $0x5,%r8d
    419c:	48 89 e9             	mov    %rbp,%rcx
    419f:	4c 89 f7             	mov    %r14,%rdi
    41a2:	ff 74 24 68          	pushq  0x68(%rsp)
    41a6:	ff 74 24 78          	pushq  0x78(%rsp)
    41aa:	ff 74 24 38          	pushq  0x38(%rsp)
    41ae:	44 8b 8c 24 a8 00 00 	mov    0xa8(%rsp),%r9d
    41b5:	00 
    41b6:	48 8b 54 24 30       	mov    0x30(%rsp),%rdx
    41bb:	48 8b 74 24 70       	mov    0x70(%rsp),%rsi
    41c0:	e8 9b ed ff ff       	callq  2f60 <__cxa_finalize@plt+0xc60>
    41c5:	48 83 c4 20          	add    $0x20,%rsp
    41c9:	49 89 c7             	mov    %rax,%r15
    41cc:	e9 28 f2 ff ff       	jmpq   33f9 <__cxa_finalize@plt+0x10f9>
    41d1:	0f b6 94 24 8d 00 00 	movzbl 0x8d(%rsp),%edx
    41d8:	00 
    41d9:	e9 5a ff ff ff       	jmpq   4138 <__cxa_finalize@plt+0x1e38>
    41de:	41 bb 02 00 00 00    	mov    $0x2,%r11d
    41e4:	e9 cb f1 ff ff       	jmpq   33b4 <__cxa_finalize@plt+0x10b4>
    41e9:	e8 02 df ff ff       	callq  20f0 <__stack_chk_fail@plt>
    41ee:	48 8d 05 50 24 00 00 	lea    0x2450(%rip),%rax        # 6645 <_IO_stdin_used@@Base+0x645>
    41f5:	c6 44 24 42 01       	movb   $0x1,0x42(%rsp)
    41fa:	45 31 ed             	xor    %r13d,%r13d
    41fd:	45 31 ff             	xor    %r15d,%r15d
    4200:	c6 84 24 8d 00 00 00 	movb   $0x0,0x8d(%rsp)
    4207:	00 
    4208:	48 c7 44 24 50 00 00 	movq   $0x0,0x50(%rsp)
    420f:	00 00 
    4211:	c6 44 24 43 01       	movb   $0x1,0x43(%rsp)
    4216:	c6 44 24 08 00       	movb   $0x0,0x8(%rsp)
    421b:	48 c7 44 24 18 01 00 	movq   $0x1,0x18(%rsp)
    4222:	00 00 
    4224:	48 89 44 24 48       	mov    %rax,0x48(%rsp)
    4229:	e9 10 ee ff ff       	jmpq   303e <__cxa_finalize@plt+0xd3e>
    422e:	4c 89 64 24 50       	mov    %r12,0x50(%rsp)
    4233:	31 d2                	xor    %edx,%edx
    4235:	31 c0                	xor    %eax,%eax
    4237:	45 31 ed             	xor    %r13d,%r13d
    423a:	c6 44 24 42 01       	movb   $0x1,0x42(%rsp)
    423f:	e9 e5 f5 ff ff       	jmpq   3829 <__cxa_finalize@plt+0x1529>
    4244:	89 cb                	mov    %ecx,%ebx
    4246:	45 31 ed             	xor    %r13d,%r13d
    4249:	e9 90 ef ff ff       	jmpq   31de <__cxa_finalize@plt+0xede>
    424e:	4c 89 e2             	mov    %r12,%rdx
    4251:	4c 8b 64 24 50       	mov    0x50(%rsp),%r12
    4256:	e9 27 f0 ff ff       	jmpq   3282 <__cxa_finalize@plt+0xf82>
    425b:	0f 1f 44 00 00       	nopl   0x0(%rax,%rax,1)
    4260:	41 57                	push   %r15
    4262:	4c 63 ff             	movslq %edi,%r15
    4265:	41 56                	push   %r14
    4267:	49 89 d6             	mov    %rdx,%r14
    426a:	41 55                	push   %r13
    426c:	41 54                	push   %r12
    426e:	55                   	push   %rbp
    426f:	48 89 cd             	mov    %rcx,%rbp
    4272:	53                   	push   %rbx
    4273:	48 83 ec 28          	sub    $0x28,%rsp
    4277:	48 89 74 24 08       	mov    %rsi,0x8(%rsp)
    427c:	e8 cf dd ff ff       	callq  2050 <__errno_location@plt>
    4281:	48 8b 1d f8 5d 00 00 	mov    0x5df8(%rip),%rbx        # a080 <quote_quoting_options@@Base+0x40>
    4288:	49 89 c5             	mov    %rax,%r13
    428b:	8b 00                	mov    (%rax),%eax
    428d:	89 44 24 18          	mov    %eax,0x18(%rsp)
    4291:	45 85 ff             	test   %r15d,%r15d
    4294:	0f 88 7b e0 ff ff    	js     2315 <__cxa_finalize@plt+0x15>
    429a:	44 39 3d d7 5d 00 00 	cmp    %r15d,0x5dd7(%rip)        # a078 <quote_quoting_options@@Base+0x38>
    42a1:	7f 62                	jg     4305 <__cxa_finalize@plt+0x2005>
    42a3:	41 81 ff ff ff ff 7f 	cmp    $0x7fffffff,%r15d
    42aa:	0f 84 51 01 00 00    	je     4401 <__cxa_finalize@plt+0x2101>
    42b0:	45 8d 67 01          	lea    0x1(%r15),%r12d
    42b4:	48 8d 05 d5 5d 00 00 	lea    0x5dd5(%rip),%rax        # a090 <quote_quoting_options@@Base+0x50>
    42bb:	49 63 f4             	movslq %r12d,%rsi
    42be:	48 c1 e6 04          	shl    $0x4,%rsi
    42c2:	48 39 c3             	cmp    %rax,%rbx
    42c5:	0f 84 15 01 00 00    	je     43e0 <__cxa_finalize@plt+0x20e0>
    42cb:	48 89 df             	mov    %rbx,%rdi
    42ce:	e8 7d 0f 00 00       	callq  5250 <__cxa_finalize@plt+0x2f50>
    42d3:	48 89 05 a6 5d 00 00 	mov    %rax,0x5da6(%rip)        # a080 <quote_quoting_options@@Base+0x40>
    42da:	48 89 c3             	mov    %rax,%rbx
    42dd:	48 63 3d 94 5d 00 00 	movslq 0x5d94(%rip),%rdi        # a078 <quote_quoting_options@@Base+0x38>
    42e4:	44 89 e2             	mov    %r12d,%edx
    42e7:	31 f6                	xor    %esi,%esi
    42e9:	29 fa                	sub    %edi,%edx
    42eb:	48 c1 e7 04          	shl    $0x4,%rdi
    42ef:	48 63 d2             	movslq %edx,%rdx
    42f2:	48 01 df             	add    %rbx,%rdi
    42f5:	48 c1 e2 04          	shl    $0x4,%rdx
    42f9:	e8 62 de ff ff       	callq  2160 <memset@plt>
    42fe:	44 89 25 73 5d 00 00 	mov    %r12d,0x5d73(%rip)        # a078 <quote_quoting_options@@Base+0x38>
    4305:	8b 45 04             	mov    0x4(%rbp),%eax
    4308:	49 c1 e7 04          	shl    $0x4,%r15
    430c:	48 83 ec 08          	sub    $0x8,%rsp
    4310:	44 8b 45 00          	mov    0x0(%rbp),%r8d
    4314:	4c 01 fb             	add    %r15,%rbx
    4317:	4c 8d 7d 08          	lea    0x8(%rbp),%r15
    431b:	4c 89 f1             	mov    %r14,%rcx
    431e:	83 c8 01             	or     $0x1,%eax
    4321:	4c 8b 1b             	mov    (%rbx),%r11
    4324:	4c 8b 63 08          	mov    0x8(%rbx),%r12
    4328:	89 44 24 24          	mov    %eax,0x24(%rsp)
    432c:	41 89 c1             	mov    %eax,%r9d
    432f:	ff 75 30             	pushq  0x30(%rbp)
    4332:	4c 89 de             	mov    %r11,%rsi
    4335:	4c 89 e7             	mov    %r12,%rdi
    4338:	ff 75 28             	pushq  0x28(%rbp)
    433b:	41 57                	push   %r15
    433d:	48 8b 54 24 28       	mov    0x28(%rsp),%rdx
    4342:	4c 89 5c 24 30       	mov    %r11,0x30(%rsp)
    4347:	e8 14 ec ff ff       	callq  2f60 <__cxa_finalize@plt+0xc60>
    434c:	48 83 c4 20          	add    $0x20,%rsp
    4350:	4c 8b 5c 24 10       	mov    0x10(%rsp),%r11
    4355:	49 39 c3             	cmp    %rax,%r11
    4358:	77 67                	ja     43c1 <__cxa_finalize@plt+0x20c1>
    435a:	48 8d 70 01          	lea    0x1(%rax),%rsi
    435e:	48 8d 05 9b 5d 00 00 	lea    0x5d9b(%rip),%rax        # a100 <program_name@@Base+0x20>
    4365:	48 89 33             	mov    %rsi,(%rbx)
    4368:	49 39 c4             	cmp    %rax,%r12
    436b:	74 12                	je     437f <__cxa_finalize@plt+0x207f>
    436d:	4c 89 e7             	mov    %r12,%rdi
    4370:	48 89 74 24 10       	mov    %rsi,0x10(%rsp)
    4375:	e8 b6 dc ff ff       	callq  2030 <free@plt>
    437a:	48 8b 74 24 10       	mov    0x10(%rsp),%rsi
    437f:	48 89 f7             	mov    %rsi,%rdi
    4382:	48 89 74 24 10       	mov    %rsi,0x10(%rsp)
    4387:	e8 64 0e 00 00       	callq  51f0 <__cxa_finalize@plt+0x2ef0>
    438c:	48 83 ec 08          	sub    $0x8,%rsp
    4390:	44 8b 45 00          	mov    0x0(%rbp),%r8d
    4394:	4c 89 f1             	mov    %r14,%rcx
    4397:	48 89 43 08          	mov    %rax,0x8(%rbx)
    439b:	48 89 c7             	mov    %rax,%rdi
    439e:	49 89 c4             	mov    %rax,%r12
    43a1:	ff 75 30             	pushq  0x30(%rbp)
    43a4:	ff 75 28             	pushq  0x28(%rbp)
    43a7:	41 57                	push   %r15
    43a9:	44 8b 4c 24 3c       	mov    0x3c(%rsp),%r9d
    43ae:	48 8b 54 24 28       	mov    0x28(%rsp),%rdx
    43b3:	48 8b 74 24 30       	mov    0x30(%rsp),%rsi
    43b8:	e8 a3 eb ff ff       	callq  2f60 <__cxa_finalize@plt+0xc60>
    43bd:	48 83 c4 20          	add    $0x20,%rsp
    43c1:	8b 44 24 18          	mov    0x18(%rsp),%eax
    43c5:	41 89 45 00          	mov    %eax,0x0(%r13)
    43c9:	48 83 c4 28          	add    $0x28,%rsp
    43cd:	4c 89 e0             	mov    %r12,%rax
    43d0:	5b                   	pop    %rbx
    43d1:	5d                   	pop    %rbp
    43d2:	41 5c                	pop    %r12
    43d4:	41 5d                	pop    %r13
    43d6:	41 5e                	pop    %r14
    43d8:	41 5f                	pop    %r15
    43da:	c3                   	retq   
    43db:	0f 1f 44 00 00       	nopl   0x0(%rax,%rax,1)
    43e0:	31 ff                	xor    %edi,%edi
    43e2:	e8 69 0e 00 00       	callq  5250 <__cxa_finalize@plt+0x2f50>
    43e7:	66 0f 6f 05 a1 5c 00 	movdqa 0x5ca1(%rip),%xmm0        # a090 <quote_quoting_options@@Base+0x50>
    43ee:	00 
    43ef:	48 89 c3             	mov    %rax,%rbx
    43f2:	48 89 05 87 5c 00 00 	mov    %rax,0x5c87(%rip)        # a080 <quote_quoting_options@@Base+0x40>
    43f9:	0f 11 00             	movups %xmm0,(%rax)
    43fc:	e9 dc fe ff ff       	jmpq   42dd <__cxa_finalize@plt+0x1fdd>
    4401:	e8 3a 10 00 00       	callq  5440 <__cxa_finalize@plt+0x3140>
    4406:	66 2e 0f 1f 84 00 00 	nopw   %cs:0x0(%rax,%rax,1)
    440d:	00 00 00 
    4410:	41 54                	push   %r12
    4412:	55                   	push   %rbp
    4413:	53                   	push   %rbx
    4414:	48 89 fb             	mov    %rdi,%rbx
    4417:	e8 34 dc ff ff       	callq  2050 <__errno_location@plt>
    441c:	48 85 db             	test   %rbx,%rbx
    441f:	be 38 00 00 00       	mov    $0x38,%esi
    4424:	44 8b 20             	mov    (%rax),%r12d
    4427:	48 89 c5             	mov    %rax,%rbp
    442a:	48 8d 05 cf 5d 00 00 	lea    0x5dcf(%rip),%rax        # a200 <program_name@@Base+0x120>
    4431:	48 0f 44 d8          	cmove  %rax,%rbx
    4435:	48 89 df             	mov    %rbx,%rdi
    4438:	e8 b3 0f 00 00       	callq  53f0 <__cxa_finalize@plt+0x30f0>
    443d:	44 89 65 00          	mov    %r12d,0x0(%rbp)
    4441:	5b                   	pop    %rbx
    4442:	5d                   	pop    %rbp
    4443:	41 5c                	pop    %r12
    4445:	c3                   	retq   
    4446:	66 2e 0f 1f 84 00 00 	nopw   %cs:0x0(%rax,%rax,1)
    444d:	00 00 00 
    4450:	48 85 ff             	test   %rdi,%rdi
    4453:	48 8d 05 a6 5d 00 00 	lea    0x5da6(%rip),%rax        # a200 <program_name@@Base+0x120>
    445a:	48 0f 44 f8          	cmove  %rax,%rdi
    445e:	8b 07                	mov    (%rdi),%eax
    4460:	c3                   	retq   
    4461:	66 66 2e 0f 1f 84 00 	data16 nopw %cs:0x0(%rax,%rax,1)
    4468:	00 00 00 00 
    446c:	0f 1f 40 00          	nopl   0x0(%rax)
    4470:	48 85 ff             	test   %rdi,%rdi
    4473:	48 8d 05 86 5d 00 00 	lea    0x5d86(%rip),%rax        # a200 <program_name@@Base+0x120>
    447a:	48 0f 44 f8          	cmove  %rax,%rdi
    447e:	89 37                	mov    %esi,(%rdi)
    4480:	c3                   	retq   
    4481:	66 66 2e 0f 1f 84 00 	data16 nopw %cs:0x0(%rax,%rax,1)
    4488:	00 00 00 00 
    448c:	0f 1f 40 00          	nopl   0x0(%rax)
    4490:	48 85 ff             	test   %rdi,%rdi
    4493:	48 8d 05 66 5d 00 00 	lea    0x5d66(%rip),%rax        # a200 <program_name@@Base+0x120>
    449a:	89 f1                	mov    %esi,%ecx
    449c:	48 0f 44 f8          	cmove  %rax,%rdi
    44a0:	89 f0                	mov    %esi,%eax
    44a2:	83 e1 1f             	and    $0x1f,%ecx
    44a5:	c0 e8 05             	shr    $0x5,%al
    44a8:	0f b6 c0             	movzbl %al,%eax
    44ab:	48 8d 7c 87 08       	lea    0x8(%rdi,%rax,4),%rdi
    44b0:	8b 37                	mov    (%rdi),%esi
    44b2:	89 f0                	mov    %esi,%eax
    44b4:	d3 e8                	shr    %cl,%eax
    44b6:	31 c2                	xor    %eax,%edx
    44b8:	83 e0 01             	and    $0x1,%eax
    44bb:	83 e2 01             	and    $0x1,%edx
    44be:	d3 e2                	shl    %cl,%edx
    44c0:	31 f2                	xor    %esi,%edx
    44c2:	89 17                	mov    %edx,(%rdi)
    44c4:	c3                   	retq   
    44c5:	66 66 2e 0f 1f 84 00 	data16 nopw %cs:0x0(%rax,%rax,1)
    44cc:	00 00 00 00 
    44d0:	48 85 ff             	test   %rdi,%rdi
    44d3:	48 8d 05 26 5d 00 00 	lea    0x5d26(%rip),%rax        # a200 <program_name@@Base+0x120>
    44da:	48 0f 44 f8          	cmove  %rax,%rdi
    44de:	8b 47 04             	mov    0x4(%rdi),%eax
    44e1:	89 77 04             	mov    %esi,0x4(%rdi)
    44e4:	c3                   	retq   
    44e5:	66 66 2e 0f 1f 84 00 	data16 nopw %cs:0x0(%rax,%rax,1)
    44ec:	00 00 00 00 
    44f0:	48 85 ff             	test   %rdi,%rdi
    44f3:	48 8d 05 06 5d 00 00 	lea    0x5d06(%rip),%rax        # a200 <program_name@@Base+0x120>
    44fa:	48 0f 44 f8          	cmove  %rax,%rdi
    44fe:	c7 07 0a 00 00 00    	movl   $0xa,(%rdi)
    4504:	48 85 f6             	test   %rsi,%rsi
    4507:	74 0e                	je     4517 <__cxa_finalize@plt+0x2217>
    4509:	48 85 d2             	test   %rdx,%rdx
    450c:	74 09                	je     4517 <__cxa_finalize@plt+0x2217>
    450e:	48 89 77 28          	mov    %rsi,0x28(%rdi)
    4512:	48 89 57 30          	mov    %rdx,0x30(%rdi)
    4516:	c3                   	retq   
    4517:	50                   	push   %rax
    4518:	e8 23 db ff ff       	callq  2040 <abort@plt>
    451d:	0f 1f 00             	nopl   (%rax)
    4520:	41 57                	push   %r15
    4522:	48 8d 05 d7 5c 00 00 	lea    0x5cd7(%rip),%rax        # a200 <program_name@@Base+0x120>
    4529:	49 89 d7             	mov    %rdx,%r15
    452c:	41 56                	push   %r14
    452e:	49 89 f6             	mov    %rsi,%r14
    4531:	41 55                	push   %r13
    4533:	49 89 fd             	mov    %rdi,%r13
    4536:	41 54                	push   %r12
    4538:	55                   	push   %rbp
    4539:	53                   	push   %rbx
    453a:	4c 89 c3             	mov    %r8,%rbx
    453d:	48 83 ec 18          	sub    $0x18,%rsp
    4541:	4d 85 c0             	test   %r8,%r8
    4544:	48 0f 44 d8          	cmove  %rax,%rbx
    4548:	48 89 4c 24 08       	mov    %rcx,0x8(%rsp)
    454d:	e8 fe da ff ff       	callq  2050 <__errno_location@plt>
    4552:	48 83 ec 08          	sub    $0x8,%rsp
    4556:	4c 89 fa             	mov    %r15,%rdx
    4559:	4c 89 f6             	mov    %r14,%rsi
    455c:	44 8b 20             	mov    (%rax),%r12d
    455f:	48 89 c5             	mov    %rax,%rbp
    4562:	48 8d 43 08          	lea    0x8(%rbx),%rax
    4566:	44 8b 4b 04          	mov    0x4(%rbx),%r9d
    456a:	ff 73 30             	pushq  0x30(%rbx)
    456d:	44 8b 03             	mov    (%rbx),%r8d
    4570:	4c 89 ef             	mov    %r13,%rdi
    4573:	ff 73 28             	pushq  0x28(%rbx)
    4576:	50                   	push   %rax
    4577:	48 8b 4c 24 28       	mov    0x28(%rsp),%rcx
    457c:	e8 df e9 ff ff       	callq  2f60 <__cxa_finalize@plt+0xc60>
    4581:	44 89 65 00          	mov    %r12d,0x0(%rbp)
    4585:	48 83 c4 38          	add    $0x38,%rsp
    4589:	5b                   	pop    %rbx
    458a:	5d                   	pop    %rbp
    458b:	41 5c                	pop    %r12
    458d:	41 5d                	pop    %r13
    458f:	41 5e                	pop    %r14
    4591:	41 5f                	pop    %r15
    4593:	c3                   	retq   
    4594:	66 66 2e 0f 1f 84 00 	data16 nopw %cs:0x0(%rax,%rax,1)
    459b:	00 00 00 00 
    459f:	90                   	nop
    45a0:	41 57                	push   %r15
    45a2:	48 8d 05 57 5c 00 00 	lea    0x5c57(%rip),%rax        # a200 <program_name@@Base+0x120>
    45a9:	49 89 f7             	mov    %rsi,%r15
    45ac:	41 56                	push   %r14
    45ae:	49 89 fe             	mov    %rdi,%r14
    45b1:	41 55                	push   %r13
    45b3:	41 54                	push   %r12
    45b5:	49 89 d4             	mov    %rdx,%r12
    45b8:	55                   	push   %rbp
    45b9:	53                   	push   %rbx
    45ba:	48 89 cb             	mov    %rcx,%rbx
    45bd:	48 83 ec 38          	sub    $0x38,%rsp
    45c1:	48 85 c9             	test   %rcx,%rcx
    45c4:	48 0f 44 d8          	cmove  %rax,%rbx
    45c8:	31 ed                	xor    %ebp,%ebp
    45ca:	e8 81 da ff ff       	callq  2050 <__errno_location@plt>
    45cf:	4d 85 e4             	test   %r12,%r12
    45d2:	4c 89 f9             	mov    %r15,%rcx
    45d5:	4c 89 f2             	mov    %r14,%rdx
    45d8:	49 89 c5             	mov    %rax,%r13
    45db:	8b 00                	mov    (%rax),%eax
    45dd:	40 0f 94 c5          	sete   %bpl
    45e1:	4c 8d 53 08          	lea    0x8(%rbx),%r10
    45e5:	48 83 ec 08          	sub    $0x8,%rsp
    45e9:	0b 6b 04             	or     0x4(%rbx),%ebp
    45ec:	44 8b 03             	mov    (%rbx),%r8d
    45ef:	31 f6                	xor    %esi,%esi
    45f1:	89 44 24 14          	mov    %eax,0x14(%rsp)
    45f5:	41 89 e9             	mov    %ebp,%r9d
    45f8:	31 ff                	xor    %edi,%edi
    45fa:	ff 73 30             	pushq  0x30(%rbx)
    45fd:	ff 73 28             	pushq  0x28(%rbx)
    4600:	41 52                	push   %r10
    4602:	4c 89 54 24 40       	mov    %r10,0x40(%rsp)
    4607:	e8 54 e9 ff ff       	callq  2f60 <__cxa_finalize@plt+0xc60>
    460c:	48 8d 70 01          	lea    0x1(%rax),%rsi
    4610:	48 89 44 24 48       	mov    %rax,0x48(%rsp)
    4615:	48 83 c4 20          	add    $0x20,%rsp
    4619:	48 89 f7             	mov    %rsi,%rdi
    461c:	48 89 74 24 18       	mov    %rsi,0x18(%rsp)
    4621:	e8 ca 0b 00 00       	callq  51f0 <__cxa_finalize@plt+0x2ef0>
    4626:	44 8b 03             	mov    (%rbx),%r8d
    4629:	41 89 e9             	mov    %ebp,%r9d
    462c:	4c 89 f9             	mov    %r15,%rcx
    462f:	48 89 44 24 10       	mov    %rax,0x10(%rsp)
    4634:	48 83 ec 08          	sub    $0x8,%rsp
    4638:	4c 89 f2             	mov    %r14,%rdx
    463b:	48 89 c7             	mov    %rax,%rdi
    463e:	ff 73 30             	pushq  0x30(%rbx)
    4641:	ff 73 28             	pushq  0x28(%rbx)
    4644:	4c 8b 54 24 38       	mov    0x38(%rsp),%r10
    4649:	41 52                	push   %r10
    464b:	48 8b 74 24 38       	mov    0x38(%rsp),%rsi
    4650:	e8 0b e9 ff ff       	callq  2f60 <__cxa_finalize@plt+0xc60>
    4655:	8b 44 24 2c          	mov    0x2c(%rsp),%eax
    4659:	48 83 c4 20          	add    $0x20,%rsp
    465d:	41 89 45 00          	mov    %eax,0x0(%r13)
    4661:	4d 85 e4             	test   %r12,%r12
    4664:	74 09                	je     466f <__cxa_finalize@plt+0x236f>
    4666:	4c 8b 5c 24 28       	mov    0x28(%rsp),%r11
    466b:	4d 89 1c 24          	mov    %r11,(%r12)
    466f:	48 8b 44 24 10       	mov    0x10(%rsp),%rax
    4674:	48 83 c4 38          	add    $0x38,%rsp
    4678:	5b                   	pop    %rbx
    4679:	5d                   	pop    %rbp
    467a:	41 5c                	pop    %r12
    467c:	41 5d                	pop    %r13
    467e:	41 5e                	pop    %r14
    4680:	41 5f                	pop    %r15
    4682:	c3                   	retq   
    4683:	66 66 2e 0f 1f 84 00 	data16 nopw %cs:0x0(%rax,%rax,1)
    468a:	00 00 00 00 
    468e:	66 90                	xchg   %ax,%ax
    4690:	48 89 d1             	mov    %rdx,%rcx
    4693:	31 d2                	xor    %edx,%edx
    4695:	e9 06 ff ff ff       	jmpq   45a0 <__cxa_finalize@plt+0x22a0>
    469a:	66 0f 1f 44 00 00    	nopw   0x0(%rax,%rax,1)
    46a0:	8b 05 d2 59 00 00    	mov    0x59d2(%rip),%eax        # a078 <quote_quoting_options@@Base+0x38>
    46a6:	41 54                	push   %r12
    46a8:	4c 8b 25 d1 59 00 00 	mov    0x59d1(%rip),%r12        # a080 <quote_quoting_options@@Base+0x40>
    46af:	55                   	push   %rbp
    46b0:	53                   	push   %rbx
    46b1:	83 f8 01             	cmp    $0x1,%eax
    46b4:	7e 2b                	jle    46e1 <__cxa_finalize@plt+0x23e1>
    46b6:	83 e8 02             	sub    $0x2,%eax
    46b9:	49 8d 5c 24 18       	lea    0x18(%r12),%rbx
    46be:	48 c1 e0 04          	shl    $0x4,%rax
    46c2:	49 8d 6c 04 28       	lea    0x28(%r12,%rax,1),%rbp
    46c7:	66 0f 1f 84 00 00 00 	nopw   0x0(%rax,%rax,1)
    46ce:	00 00 
    46d0:	48 8b 3b             	mov    (%rbx),%rdi
    46d3:	48 83 c3 10          	add    $0x10,%rbx
    46d7:	e8 54 d9 ff ff       	callq  2030 <free@plt>
    46dc:	48 39 eb             	cmp    %rbp,%rbx
    46df:	75 ef                	jne    46d0 <__cxa_finalize@plt+0x23d0>
    46e1:	49 8b 7c 24 08       	mov    0x8(%r12),%rdi
    46e6:	48 8d 1d 13 5a 00 00 	lea    0x5a13(%rip),%rbx        # a100 <program_name@@Base+0x20>
    46ed:	48 39 df             	cmp    %rbx,%rdi
    46f0:	74 17                	je     4709 <__cxa_finalize@plt+0x2409>
    46f2:	e8 39 d9 ff ff       	callq  2030 <free@plt>
    46f7:	48 89 1d 9a 59 00 00 	mov    %rbx,0x599a(%rip)        # a098 <quote_quoting_options@@Base+0x58>
    46fe:	48 c7 05 87 59 00 00 	movq   $0x100,0x5987(%rip)        # a090 <quote_quoting_options@@Base+0x50>
    4705:	00 01 00 00 
    4709:	48 8d 1d 80 59 00 00 	lea    0x5980(%rip),%rbx        # a090 <quote_quoting_options@@Base+0x50>
    4710:	49 39 dc             	cmp    %rbx,%r12
    4713:	74 0f                	je     4724 <__cxa_finalize@plt+0x2424>
    4715:	4c 89 e7             	mov    %r12,%rdi
    4718:	e8 13 d9 ff ff       	callq  2030 <free@plt>
    471d:	48 89 1d 5c 59 00 00 	mov    %rbx,0x595c(%rip)        # a080 <quote_quoting_options@@Base+0x40>
    4724:	c7 05 4a 59 00 00 01 	movl   $0x1,0x594a(%rip)        # a078 <quote_quoting_options@@Base+0x38>
    472b:	00 00 00 
    472e:	5b                   	pop    %rbx
    472f:	5d                   	pop    %rbp
    4730:	41 5c                	pop    %r12
    4732:	c3                   	retq   
    4733:	66 66 2e 0f 1f 84 00 	data16 nopw %cs:0x0(%rax,%rax,1)
    473a:	00 00 00 00 
    473e:	66 90                	xchg   %ax,%ax
    4740:	48 8d 0d b9 5a 00 00 	lea    0x5ab9(%rip),%rcx        # a200 <program_name@@Base+0x120>
    4747:	48 c7 c2 ff ff ff ff 	mov    $0xffffffffffffffff,%rdx
    474e:	e9 0d fb ff ff       	jmpq   4260 <__cxa_finalize@plt+0x1f60>
    4753:	66 66 2e 0f 1f 84 00 	data16 nopw %cs:0x0(%rax,%rax,1)
    475a:	00 00 00 00 
    475e:	66 90                	xchg   %ax,%ax
    4760:	48 8d 0d 99 5a 00 00 	lea    0x5a99(%rip),%rcx        # a200 <program_name@@Base+0x120>
    4767:	e9 f4 fa ff ff       	jmpq   4260 <__cxa_finalize@plt+0x1f60>
    476c:	0f 1f 40 00          	nopl   0x0(%rax)
    4770:	48 89 fe             	mov    %rdi,%rsi
    4773:	48 8d 0d 86 5a 00 00 	lea    0x5a86(%rip),%rcx        # a200 <program_name@@Base+0x120>
    477a:	48 c7 c2 ff ff ff ff 	mov    $0xffffffffffffffff,%rdx
    4781:	31 ff                	xor    %edi,%edi
    4783:	e9 d8 fa ff ff       	jmpq   4260 <__cxa_finalize@plt+0x1f60>
    4788:	0f 1f 84 00 00 00 00 	nopl   0x0(%rax,%rax,1)
    478f:	00 
    4790:	48 89 f2             	mov    %rsi,%rdx
    4793:	48 8d 0d 66 5a 00 00 	lea    0x5a66(%rip),%rcx        # a200 <program_name@@Base+0x120>
    479a:	48 89 fe             	mov    %rdi,%rsi
    479d:	31 ff                	xor    %edi,%edi
    479f:	e9 bc fa ff ff       	jmpq   4260 <__cxa_finalize@plt+0x1f60>
    47a4:	66 66 2e 0f 1f 84 00 	data16 nopw %cs:0x0(%rax,%rax,1)
    47ab:	00 00 00 00 
    47af:	90                   	nop
    47b0:	48 83 ec 48          	sub    $0x48,%rsp
    47b4:	48 89 d0             	mov    %rdx,%rax
    47b7:	64 48 8b 14 25 28 00 	mov    %fs:0x28,%rdx
    47be:	00 00 
    47c0:	48 89 54 24 38       	mov    %rdx,0x38(%rsp)
    47c5:	31 d2                	xor    %edx,%edx
    47c7:	83 fe 0a             	cmp    $0xa,%esi
    47ca:	0f 84 4a db ff ff    	je     231a <__cxa_finalize@plt+0x1a>
    47d0:	89 34 24             	mov    %esi,(%rsp)
    47d3:	48 89 e1             	mov    %rsp,%rcx
    47d6:	48 89 c6             	mov    %rax,%rsi
    47d9:	48 c7 c2 ff ff ff ff 	mov    $0xffffffffffffffff,%rdx
    47e0:	c7 44 24 04 00 00 00 	movl   $0x0,0x4(%rsp)
    47e7:	00 
    47e8:	48 c7 44 24 08 00 00 	movq   $0x0,0x8(%rsp)
    47ef:	00 00 
    47f1:	48 c7 44 24 10 00 00 	movq   $0x0,0x10(%rsp)
    47f8:	00 00 
    47fa:	48 c7 44 24 18 00 00 	movq   $0x0,0x18(%rsp)
    4801:	00 00 
    4803:	48 c7 44 24 20 00 00 	movq   $0x0,0x20(%rsp)
    480a:	00 00 
    480c:	48 c7 44 24 28 00 00 	movq   $0x0,0x28(%rsp)
    4813:	00 00 
    4815:	48 c7 44 24 30 00 00 	movq   $0x0,0x30(%rsp)
    481c:	00 00 
    481e:	e8 3d fa ff ff       	callq  4260 <__cxa_finalize@plt+0x1f60>
    4823:	48 8b 4c 24 38       	mov    0x38(%rsp),%rcx
    4828:	64 48 33 0c 25 28 00 	xor    %fs:0x28,%rcx
    482f:	00 00 
    4831:	75 05                	jne    4838 <__cxa_finalize@plt+0x2538>
    4833:	48 83 c4 48          	add    $0x48,%rsp
    4837:	c3                   	retq   
    4838:	e8 b3 d8 ff ff       	callq  20f0 <__stack_chk_fail@plt>
    483d:	0f 1f 00             	nopl   (%rax)
    4840:	48 83 ec 48          	sub    $0x48,%rsp
    4844:	48 89 d0             	mov    %rdx,%rax
    4847:	48 89 ca             	mov    %rcx,%rdx
    484a:	64 48 8b 0c 25 28 00 	mov    %fs:0x28,%rcx
    4851:	00 00 
    4853:	48 89 4c 24 38       	mov    %rcx,0x38(%rsp)
    4858:	31 c9                	xor    %ecx,%ecx
    485a:	83 fe 0a             	cmp    $0xa,%esi
    485d:	0f 84 bc da ff ff    	je     231f <__cxa_finalize@plt+0x1f>
    4863:	89 34 24             	mov    %esi,(%rsp)
    4866:	48 89 e1             	mov    %rsp,%rcx
    4869:	48 89 c6             	mov    %rax,%rsi
    486c:	c7 44 24 04 00 00 00 	movl   $0x0,0x4(%rsp)
    4873:	00 
    4874:	48 c7 44 24 08 00 00 	movq   $0x0,0x8(%rsp)
    487b:	00 00 
    487d:	48 c7 44 24 10 00 00 	movq   $0x0,0x10(%rsp)
    4884:	00 00 
    4886:	48 c7 44 24 18 00 00 	movq   $0x0,0x18(%rsp)
    488d:	00 00 
    488f:	48 c7 44 24 20 00 00 	movq   $0x0,0x20(%rsp)
    4896:	00 00 
    4898:	48 c7 44 24 28 00 00 	movq   $0x0,0x28(%rsp)
    489f:	00 00 
    48a1:	48 c7 44 24 30 00 00 	movq   $0x0,0x30(%rsp)
    48a8:	00 00 
    48aa:	e8 b1 f9 ff ff       	callq  4260 <__cxa_finalize@plt+0x1f60>
    48af:	48 8b 54 24 38       	mov    0x38(%rsp),%rdx
    48b4:	64 48 33 14 25 28 00 	xor    %fs:0x28,%rdx
    48bb:	00 00 
    48bd:	75 05                	jne    48c4 <__cxa_finalize@plt+0x25c4>
    48bf:	48 83 c4 48          	add    $0x48,%rsp
    48c3:	c3                   	retq   
    48c4:	e8 27 d8 ff ff       	callq  20f0 <__stack_chk_fail@plt>
    48c9:	0f 1f 80 00 00 00 00 	nopl   0x0(%rax)
    48d0:	48 89 f2             	mov    %rsi,%rdx
    48d3:	89 fe                	mov    %edi,%esi
    48d5:	31 ff                	xor    %edi,%edi
    48d7:	e9 d4 fe ff ff       	jmpq   47b0 <__cxa_finalize@plt+0x24b0>
    48dc:	0f 1f 40 00          	nopl   0x0(%rax)
    48e0:	48 89 d1             	mov    %rdx,%rcx
    48e3:	48 89 f2             	mov    %rsi,%rdx
    48e6:	89 fe                	mov    %edi,%esi
    48e8:	31 ff                	xor    %edi,%edi
    48ea:	e9 51 ff ff ff       	jmpq   4840 <__cxa_finalize@plt+0x2540>
    48ef:	90                   	nop
    48f0:	48 83 ec 48          	sub    $0x48,%rsp
    48f4:	66 0f 6f 05 04 59 00 	movdqa 0x5904(%rip),%xmm0        # a200 <program_name@@Base+0x120>
    48fb:	00 
    48fc:	66 0f 6f 0d 0c 59 00 	movdqa 0x590c(%rip),%xmm1        # a210 <program_name@@Base+0x130>
    4903:	00 
    4904:	89 d1                	mov    %edx,%ecx
    4906:	64 48 8b 04 25 28 00 	mov    %fs:0x28,%rax
    490d:	00 00 
    490f:	48 89 44 24 38       	mov    %rax,0x38(%rsp)
    4914:	31 c0                	xor    %eax,%eax
    4916:	48 8b 05 13 59 00 00 	mov    0x5913(%rip),%rax        # a230 <program_name@@Base+0x150>
    491d:	49 89 e0             	mov    %rsp,%r8
    4920:	83 e1 1f             	and    $0x1f,%ecx
    4923:	66 0f 6f 15 f5 58 00 	movdqa 0x58f5(%rip),%xmm2        # a220 <program_name@@Base+0x140>
    492a:	00 
    492b:	0f 29 04 24          	movaps %xmm0,(%rsp)
    492f:	48 89 44 24 30       	mov    %rax,0x30(%rsp)
    4934:	89 d0                	mov    %edx,%eax
    4936:	c0 e8 05             	shr    $0x5,%al
    4939:	0f 29 4c 24 10       	movaps %xmm1,0x10(%rsp)
    493e:	0f b6 c0             	movzbl %al,%eax
    4941:	0f 29 54 24 20       	movaps %xmm2,0x20(%rsp)
    4946:	4d 8d 4c 80 08       	lea    0x8(%r8,%rax,4),%r9
    494b:	41 8b 11             	mov    (%r9),%edx
    494e:	89 d0                	mov    %edx,%eax
    4950:	d3 e8                	shr    %cl,%eax
    4952:	f7 d0                	not    %eax
    4954:	83 e0 01             	and    $0x1,%eax
    4957:	d3 e0                	shl    %cl,%eax
    4959:	4c 89 c1             	mov    %r8,%rcx
    495c:	31 d0                	xor    %edx,%eax
    495e:	48 89 f2             	mov    %rsi,%rdx
    4961:	48 89 fe             	mov    %rdi,%rsi
    4964:	31 ff                	xor    %edi,%edi
    4966:	41 89 01             	mov    %eax,(%r9)
    4969:	e8 f2 f8 ff ff       	callq  4260 <__cxa_finalize@plt+0x1f60>
    496e:	48 8b 74 24 38       	mov    0x38(%rsp),%rsi
    4973:	64 48 33 34 25 28 00 	xor    %fs:0x28,%rsi
    497a:	00 00 
    497c:	75 05                	jne    4983 <__cxa_finalize@plt+0x2683>
    497e:	48 83 c4 48          	add    $0x48,%rsp
    4982:	c3                   	retq   
    4983:	e8 68 d7 ff ff       	callq  20f0 <__stack_chk_fail@plt>
    4988:	0f 1f 84 00 00 00 00 	nopl   0x0(%rax,%rax,1)
    498f:	00 
    4990:	40 0f be d6          	movsbl %sil,%edx
    4994:	48 c7 c6 ff ff ff ff 	mov    $0xffffffffffffffff,%rsi
    499b:	e9 50 ff ff ff       	jmpq   48f0 <__cxa_finalize@plt+0x25f0>
    49a0:	ba 3a 00 00 00       	mov    $0x3a,%edx
    49a5:	48 c7 c6 ff ff ff ff 	mov    $0xffffffffffffffff,%rsi
    49ac:	e9 3f ff ff ff       	jmpq   48f0 <__cxa_finalize@plt+0x25f0>
    49b1:	66 66 2e 0f 1f 84 00 	data16 nopw %cs:0x0(%rax,%rax,1)
    49b8:	00 00 00 00 
    49bc:	0f 1f 40 00          	nopl   0x0(%rax)
    49c0:	ba 3a 00 00 00       	mov    $0x3a,%edx
    49c5:	e9 26 ff ff ff       	jmpq   48f0 <__cxa_finalize@plt+0x25f0>
    49ca:	66 0f 1f 44 00 00    	nopw   0x0(%rax,%rax,1)
    49d0:	48 83 ec 48          	sub    $0x48,%rsp
    49d4:	64 48 8b 0c 25 28 00 	mov    %fs:0x28,%rcx
    49db:	00 00 
    49dd:	48 89 4c 24 38       	mov    %rcx,0x38(%rsp)
    49e2:	31 c9                	xor    %ecx,%ecx
    49e4:	83 fe 0a             	cmp    $0xa,%esi
    49e7:	0f 84 37 d9 ff ff    	je     2324 <__cxa_finalize@plt+0x24>
    49ed:	48 89 d0             	mov    %rdx,%rax
    49f0:	89 34 24             	mov    %esi,(%rsp)
    49f3:	48 ba 00 00 00 00 00 	movabs $0x400000000000000,%rdx
    49fa:	00 00 04 
    49fd:	48 89 e1             	mov    %rsp,%rcx
    4a00:	48 89 54 24 08       	mov    %rdx,0x8(%rsp)
    4a05:	48 89 c6             	mov    %rax,%rsi
    4a08:	48 c7 c2 ff ff ff ff 	mov    $0xffffffffffffffff,%rdx
    4a0f:	c7 44 24 04 00 00 00 	movl   $0x0,0x4(%rsp)
    4a16:	00 
    4a17:	48 c7 44 24 10 00 00 	movq   $0x0,0x10(%rsp)
    4a1e:	00 00 
    4a20:	48 c7 44 24 18 00 00 	movq   $0x0,0x18(%rsp)
    4a27:	00 00 
    4a29:	48 c7 44 24 20 00 00 	movq   $0x0,0x20(%rsp)
    4a30:	00 00 
    4a32:	48 c7 44 24 28 00 00 	movq   $0x0,0x28(%rsp)
    4a39:	00 00 
    4a3b:	48 c7 44 24 30 00 00 	movq   $0x0,0x30(%rsp)
    4a42:	00 00 
    4a44:	e8 17 f8 ff ff       	callq  4260 <__cxa_finalize@plt+0x1f60>
    4a49:	48 8b 54 24 38       	mov    0x38(%rsp),%rdx
    4a4e:	64 48 33 14 25 28 00 	xor    %fs:0x28,%rdx
    4a55:	00 00 
    4a57:	75 05                	jne    4a5e <__cxa_finalize@plt+0x275e>
    4a59:	48 83 c4 48          	add    $0x48,%rsp
    4a5d:	c3                   	retq   
    4a5e:	e8 8d d6 ff ff       	callq  20f0 <__stack_chk_fail@plt>
    4a63:	66 66 2e 0f 1f 84 00 	data16 nopw %cs:0x0(%rax,%rax,1)
    4a6a:	00 00 00 00 
    4a6e:	66 90                	xchg   %ax,%ax
    4a70:	48 83 ec 48          	sub    $0x48,%rsp
    4a74:	49 89 c9             	mov    %rcx,%r9
    4a77:	66 0f 6f 05 81 57 00 	movdqa 0x5781(%rip),%xmm0        # a200 <program_name@@Base+0x120>
    4a7e:	00 
    4a7f:	66 0f 6f 0d 89 57 00 	movdqa 0x5789(%rip),%xmm1        # a210 <program_name@@Base+0x130>
    4a86:	00 
    4a87:	66 0f 6f 15 91 57 00 	movdqa 0x5791(%rip),%xmm2        # a220 <program_name@@Base+0x140>
    4a8e:	00 
    4a8f:	48 8b 0d 9a 57 00 00 	mov    0x579a(%rip),%rcx        # a230 <program_name@@Base+0x150>
    4a96:	64 48 8b 04 25 28 00 	mov    %fs:0x28,%rax
    4a9d:	00 00 
    4a9f:	48 89 44 24 38       	mov    %rax,0x38(%rsp)
    4aa4:	31 c0                	xor    %eax,%eax
    4aa6:	0f 29 04 24          	movaps %xmm0,(%rsp)
    4aaa:	0f 29 4c 24 10       	movaps %xmm1,0x10(%rsp)
    4aaf:	0f 29 54 24 20       	movaps %xmm2,0x20(%rsp)
    4ab4:	48 89 4c 24 30       	mov    %rcx,0x30(%rsp)
    4ab9:	c7 04 24 0a 00 00 00 	movl   $0xa,(%rsp)
    4ac0:	48 85 f6             	test   %rsi,%rsi
    4ac3:	74 37                	je     4afc <__cxa_finalize@plt+0x27fc>
    4ac5:	48 85 d2             	test   %rdx,%rdx
    4ac8:	74 32                	je     4afc <__cxa_finalize@plt+0x27fc>
    4aca:	48 89 74 24 28       	mov    %rsi,0x28(%rsp)
    4acf:	48 89 e1             	mov    %rsp,%rcx
    4ad2:	4c 89 ce             	mov    %r9,%rsi
    4ad5:	48 89 54 24 30       	mov    %rdx,0x30(%rsp)
    4ada:	4c 89 c2             	mov    %r8,%rdx
    4add:	e8 7e f7 ff ff       	callq  4260 <__cxa_finalize@plt+0x1f60>
    4ae2:	48 8b 7c 24 38       	mov    0x38(%rsp),%rdi
    4ae7:	64 48 33 3c 25 28 00 	xor    %fs:0x28,%rdi
    4aee:	00 00 
    4af0:	75 05                	jne    4af7 <__cxa_finalize@plt+0x27f7>
    4af2:	48 83 c4 48          	add    $0x48,%rsp
    4af6:	c3                   	retq   
    4af7:	e8 f4 d5 ff ff       	callq  20f0 <__stack_chk_fail@plt>
    4afc:	e8 3f d5 ff ff       	callq  2040 <abort@plt>
    4b01:	66 66 2e 0f 1f 84 00 	data16 nopw %cs:0x0(%rax,%rax,1)
    4b08:	00 00 00 00 
    4b0c:	0f 1f 40 00          	nopl   0x0(%rax)
    4b10:	49 c7 c0 ff ff ff ff 	mov    $0xffffffffffffffff,%r8
    4b17:	e9 54 ff ff ff       	jmpq   4a70 <__cxa_finalize@plt+0x2770>
    4b1c:	0f 1f 40 00          	nopl   0x0(%rax)
    4b20:	48 89 d1             	mov    %rdx,%rcx
    4b23:	49 c7 c0 ff ff ff ff 	mov    $0xffffffffffffffff,%r8
    4b2a:	48 89 f2             	mov    %rsi,%rdx
    4b2d:	48 89 fe             	mov    %rdi,%rsi
    4b30:	31 ff                	xor    %edi,%edi
    4b32:	e9 39 ff ff ff       	jmpq   4a70 <__cxa_finalize@plt+0x2770>
    4b37:	66 0f 1f 84 00 00 00 	nopw   0x0(%rax,%rax,1)
    4b3e:	00 00 
    4b40:	49 89 c8             	mov    %rcx,%r8
    4b43:	48 89 d1             	mov    %rdx,%rcx
    4b46:	48 89 f2             	mov    %rsi,%rdx
    4b49:	48 89 fe             	mov    %rdi,%rsi
    4b4c:	31 ff                	xor    %edi,%edi
    4b4e:	e9 1d ff ff ff       	jmpq   4a70 <__cxa_finalize@plt+0x2770>
    4b53:	66 66 2e 0f 1f 84 00 	data16 nopw %cs:0x0(%rax,%rax,1)
    4b5a:	00 00 00 00 
    4b5e:	66 90                	xchg   %ax,%ax
    4b60:	48 8d 0d d9 54 00 00 	lea    0x54d9(%rip),%rcx        # a040 <quote_quoting_options@@Base>
    4b67:	e9 f4 f6 ff ff       	jmpq   4260 <__cxa_finalize@plt+0x1f60>
    4b6c:	0f 1f 40 00          	nopl   0x0(%rax)
    4b70:	48 89 f2             	mov    %rsi,%rdx
    4b73:	48 8d 0d c6 54 00 00 	lea    0x54c6(%rip),%rcx        # a040 <quote_quoting_options@@Base>
    4b7a:	48 89 fe             	mov    %rdi,%rsi
    4b7d:	31 ff                	xor    %edi,%edi
    4b7f:	e9 dc f6 ff ff       	jmpq   4260 <__cxa_finalize@plt+0x1f60>
    4b84:	66 66 2e 0f 1f 84 00 	data16 nopw %cs:0x0(%rax,%rax,1)
    4b8b:	00 00 00 00 
    4b8f:	90                   	nop
    4b90:	48 8d 0d a9 54 00 00 	lea    0x54a9(%rip),%rcx        # a040 <quote_quoting_options@@Base>
    4b97:	48 c7 c2 ff ff ff ff 	mov    $0xffffffffffffffff,%rdx
    4b9e:	e9 bd f6 ff ff       	jmpq   4260 <__cxa_finalize@plt+0x1f60>
    4ba3:	66 66 2e 0f 1f 84 00 	data16 nopw %cs:0x0(%rax,%rax,1)
    4baa:	00 00 00 00 
    4bae:	66 90                	xchg   %ax,%ax
    4bb0:	48 89 fe             	mov    %rdi,%rsi
    4bb3:	48 8d 0d 86 54 00 00 	lea    0x5486(%rip),%rcx        # a040 <quote_quoting_options@@Base>
    4bba:	48 c7 c2 ff ff ff ff 	mov    $0xffffffffffffffff,%rdx
    4bc1:	31 ff                	xor    %edi,%edi
    4bc3:	e9 98 f6 ff ff       	jmpq   4260 <__cxa_finalize@plt+0x1f60>
    4bc8:	0f 1f 84 00 00 00 00 	nopl   0x0(%rax,%rax,1)
    4bcf:	00 
    4bd0:	41 57                	push   %r15
    4bd2:	41 56                	push   %r14
    4bd4:	41 55                	push   %r13
    4bd6:	41 54                	push   %r12
    4bd8:	4d 89 cc             	mov    %r9,%r12
    4bdb:	55                   	push   %rbp
    4bdc:	48 89 fd             	mov    %rdi,%rbp
    4bdf:	53                   	push   %rbx
    4be0:	4c 89 c3             	mov    %r8,%rbx
    4be3:	48 83 ec 28          	sub    $0x28,%rsp
    4be7:	48 85 f6             	test   %rsi,%rsi
    4bea:	0f 84 90 00 00 00    	je     4c80 <__cxa_finalize@plt+0x2980>
    4bf0:	49 89 c9             	mov    %rcx,%r9
    4bf3:	49 89 d0             	mov    %rdx,%r8
    4bf6:	48 89 f1             	mov    %rsi,%rcx
    4bf9:	31 c0                	xor    %eax,%eax
    4bfb:	48 8d 15 e6 20 00 00 	lea    0x20e6(%rip),%rdx        # 6ce8 <quoting_style_vals@@Base+0x28>
    4c02:	be 01 00 00 00       	mov    $0x1,%esi
    4c07:	e8 a4 d6 ff ff       	callq  22b0 <__fprintf_chk@plt>
    4c0c:	31 ff                	xor    %edi,%edi
    4c0e:	ba 05 00 00 00       	mov    $0x5,%edx
    4c13:	48 8d 35 e1 20 00 00 	lea    0x20e1(%rip),%rsi        # 6cfb <quoting_style_vals@@Base+0x3b>
    4c1a:	e8 a1 d4 ff ff       	callq  20c0 <dcgettext@plt>
    4c1f:	41 b8 e2 07 00 00    	mov    $0x7e2,%r8d
    4c25:	be 01 00 00 00       	mov    $0x1,%esi
    4c2a:	48 89 ef             	mov    %rbp,%rdi
    4c2d:	48 89 c1             	mov    %rax,%rcx
    4c30:	48 8d 15 e9 23 00 00 	lea    0x23e9(%rip),%rdx        # 7020 <version_etc_copyright@@Base>
    4c37:	31 c0                	xor    %eax,%eax
    4c39:	e8 72 d6 ff ff       	callq  22b0 <__fprintf_chk@plt>
    4c3e:	31 ff                	xor    %edi,%edi
    4c40:	ba 05 00 00 00       	mov    $0x5,%edx
    4c45:	48 8d 35 3c 21 00 00 	lea    0x213c(%rip),%rsi        # 6d88 <quoting_style_vals@@Base+0xc8>
    4c4c:	e8 6f d4 ff ff       	callq  20c0 <dcgettext@plt>
    4c51:	48 89 ee             	mov    %rbp,%rsi
    4c54:	48 89 c7             	mov    %rax,%rdi
    4c57:	e8 24 d5 ff ff       	callq  2180 <fputs_unlocked@plt>
    4c5c:	49 83 fc 09          	cmp    $0x9,%r12
    4c60:	0f 87 2a 03 00 00    	ja     4f90 <__cxa_finalize@plt+0x2c90>
    4c66:	48 8d 15 7b 23 00 00 	lea    0x237b(%rip),%rdx        # 6fe8 <quoting_style_vals@@Base+0x328>
    4c6d:	4a 63 04 a2          	movslq (%rdx,%r12,4),%rax
    4c71:	48 01 d0             	add    %rdx,%rax
    4c74:	ff e0                	jmpq   *%rax
    4c76:	66 2e 0f 1f 84 00 00 	nopw   %cs:0x0(%rax,%rax,1)
    4c7d:	00 00 00 
    4c80:	49 89 c8             	mov    %rcx,%r8
    4c83:	be 01 00 00 00       	mov    $0x1,%esi
    4c88:	48 89 d1             	mov    %rdx,%rcx
    4c8b:	31 c0                	xor    %eax,%eax
    4c8d:	48 8d 15 60 20 00 00 	lea    0x2060(%rip),%rdx        # 6cf4 <quoting_style_vals@@Base+0x34>
    4c94:	e8 17 d6 ff ff       	callq  22b0 <__fprintf_chk@plt>
    4c99:	e9 6e ff ff ff       	jmpq   4c0c <__cxa_finalize@plt+0x290c>
    4c9e:	66 90                	xchg   %ax,%ax
    4ca0:	4c 8b 4b 38          	mov    0x38(%rbx),%r9
    4ca4:	48 8b 43 10          	mov    0x10(%rbx),%rax
    4ca8:	ba 05 00 00 00       	mov    $0x5,%edx
    4cad:	31 ff                	xor    %edi,%edi
    4caf:	4c 8b 43 08          	mov    0x8(%rbx),%r8
    4cb3:	48 8d 35 3e 22 00 00 	lea    0x223e(%rip),%rsi        # 6ef8 <quoting_style_vals@@Base+0x238>
    4cba:	4c 8b 6b 30          	mov    0x30(%rbx),%r13
    4cbe:	4c 8b 63 28          	mov    0x28(%rbx),%r12
    4cc2:	4c 8b 7b 20          	mov    0x20(%rbx),%r15
    4cc6:	4c 89 4c 24 10       	mov    %r9,0x10(%rsp)
    4ccb:	4c 8b 73 18          	mov    0x18(%rbx),%r14
    4ccf:	48 8b 1b             	mov    (%rbx),%rbx
    4cd2:	48 89 04 24          	mov    %rax,(%rsp)
    4cd6:	4c 89 44 24 08       	mov    %r8,0x8(%rsp)
    4cdb:	e8 e0 d3 ff ff       	callq  20c0 <dcgettext@plt>
    4ce0:	48 83 ec 08          	sub    $0x8,%rsp
    4ce4:	4c 8b 4c 24 18       	mov    0x18(%rsp),%r9
    4ce9:	48 89 d9             	mov    %rbx,%rcx
    4cec:	48 89 c2             	mov    %rax,%rdx
    4cef:	48 89 ef             	mov    %rbp,%rdi
    4cf2:	be 01 00 00 00       	mov    $0x1,%esi
    4cf7:	31 c0                	xor    %eax,%eax
    4cf9:	41 51                	push   %r9
    4cfb:	41 55                	push   %r13
    4cfd:	41 54                	push   %r12
    4cff:	41 57                	push   %r15
    4d01:	41 56                	push   %r14
    4d03:	4c 8b 4c 24 30       	mov    0x30(%rsp),%r9
    4d08:	4c 8b 44 24 38       	mov    0x38(%rsp),%r8
    4d0d:	e8 9e d5 ff ff       	callq  22b0 <__fprintf_chk@plt>
    4d12:	48 83 c4 30          	add    $0x30,%rsp
    4d16:	48 83 c4 28          	add    $0x28,%rsp
    4d1a:	5b                   	pop    %rbx
    4d1b:	5d                   	pop    %rbp
    4d1c:	41 5c                	pop    %r12
    4d1e:	41 5d                	pop    %r13
    4d20:	41 5e                	pop    %r14
    4d22:	41 5f                	pop    %r15
    4d24:	c3                   	retq   
    4d25:	0f 1f 00             	nopl   (%rax)
    4d28:	4c 8b 53 40          	mov    0x40(%rbx),%r10
    4d2c:	4c 8b 4b 38          	mov    0x38(%rbx),%r9
    4d30:	ba 05 00 00 00       	mov    $0x5,%edx
    4d35:	48 8d 35 ec 21 00 00 	lea    0x21ec(%rip),%rsi        # 6f28 <quoting_style_vals@@Base+0x268>
    4d3c:	48 8b 43 10          	mov    0x10(%rbx),%rax
    4d40:	4c 8b 43 08          	mov    0x8(%rbx),%r8
    4d44:	4c 8b 6b 30          	mov    0x30(%rbx),%r13
    4d48:	4c 8b 63 28          	mov    0x28(%rbx),%r12
    4d4c:	4c 89 54 24 18       	mov    %r10,0x18(%rsp)
    4d51:	4c 8b 7b 20          	mov    0x20(%rbx),%r15
    4d55:	4c 8b 73 18          	mov    0x18(%rbx),%r14
    4d59:	4c 89 4c 24 10       	mov    %r9,0x10(%rsp)
    4d5e:	48 89 04 24          	mov    %rax,(%rsp)
    4d62:	48 8b 1b             	mov    (%rbx),%rbx
    4d65:	4c 89 44 24 08       	mov    %r8,0x8(%rsp)
    4d6a:	31 ff                	xor    %edi,%edi
    4d6c:	e8 4f d3 ff ff       	callq  20c0 <dcgettext@plt>
    4d71:	4c 8b 54 24 18       	mov    0x18(%rsp),%r10
    4d76:	41 52                	push   %r10
    4d78:	e9 67 ff ff ff       	jmpq   4ce4 <__cxa_finalize@plt+0x29e4>
    4d7d:	0f 1f 00             	nopl   (%rax)
    4d80:	48 8b 1b             	mov    (%rbx),%rbx
    4d83:	ba 05 00 00 00       	mov    $0x5,%edx
    4d88:	48 8d 35 70 1f 00 00 	lea    0x1f70(%rip),%rsi        # 6cff <quoting_style_vals@@Base+0x3f>
    4d8f:	31 ff                	xor    %edi,%edi
    4d91:	e8 2a d3 ff ff       	callq  20c0 <dcgettext@plt>
    4d96:	48 83 c4 28          	add    $0x28,%rsp
    4d9a:	48 89 ef             	mov    %rbp,%rdi
    4d9d:	be 01 00 00 00       	mov    $0x1,%esi
    4da2:	48 89 d9             	mov    %rbx,%rcx
    4da5:	48 89 c2             	mov    %rax,%rdx
    4da8:	5b                   	pop    %rbx
    4da9:	31 c0                	xor    %eax,%eax
    4dab:	5d                   	pop    %rbp
    4dac:	41 5c                	pop    %r12
    4dae:	41 5d                	pop    %r13
    4db0:	41 5e                	pop    %r14
    4db2:	41 5f                	pop    %r15
    4db4:	e9 f7 d4 ff ff       	jmpq   22b0 <__fprintf_chk@plt>
    4db9:	0f 1f 80 00 00 00 00 	nopl   0x0(%rax)
    4dc0:	4c 8b 63 08          	mov    0x8(%rbx),%r12
    4dc4:	ba 05 00 00 00       	mov    $0x5,%edx
    4dc9:	48 8b 1b             	mov    (%rbx),%rbx
    4dcc:	31 ff                	xor    %edi,%edi
    4dce:	48 8d 35 3a 1f 00 00 	lea    0x1f3a(%rip),%rsi        # 6d0f <quoting_style_vals@@Base+0x4f>
    4dd5:	e8 e6 d2 ff ff       	callq  20c0 <dcgettext@plt>
    4dda:	48 83 c4 28          	add    $0x28,%rsp
    4dde:	4d 89 e0             	mov    %r12,%r8
    4de1:	48 89 d9             	mov    %rbx,%rcx
    4de4:	48 89 c2             	mov    %rax,%rdx
    4de7:	5b                   	pop    %rbx
    4de8:	48 89 ef             	mov    %rbp,%rdi
    4deb:	be 01 00 00 00       	mov    $0x1,%esi
    4df0:	5d                   	pop    %rbp
    4df1:	31 c0                	xor    %eax,%eax
    4df3:	41 5c                	pop    %r12
    4df5:	41 5d                	pop    %r13
    4df7:	41 5e                	pop    %r14
    4df9:	41 5f                	pop    %r15
    4dfb:	e9 b0 d4 ff ff       	jmpq   22b0 <__fprintf_chk@plt>
    4e00:	4c 8b 6b 10          	mov    0x10(%rbx),%r13
    4e04:	4c 8b 63 08          	mov    0x8(%rbx),%r12
    4e08:	ba 05 00 00 00       	mov    $0x5,%edx
    4e0d:	31 ff                	xor    %edi,%edi
    4e0f:	48 8b 1b             	mov    (%rbx),%rbx
    4e12:	48 8d 35 0d 1f 00 00 	lea    0x1f0d(%rip),%rsi        # 6d26 <quoting_style_vals@@Base+0x66>
    4e19:	e8 a2 d2 ff ff       	callq  20c0 <dcgettext@plt>
    4e1e:	48 83 c4 28          	add    $0x28,%rsp
    4e22:	4d 89 e9             	mov    %r13,%r9
    4e25:	4d 89 e0             	mov    %r12,%r8
    4e28:	48 89 d9             	mov    %rbx,%rcx
    4e2b:	48 89 c2             	mov    %rax,%rdx
    4e2e:	5b                   	pop    %rbx
    4e2f:	48 89 ef             	mov    %rbp,%rdi
    4e32:	be 01 00 00 00       	mov    $0x1,%esi
    4e37:	5d                   	pop    %rbp
    4e38:	31 c0                	xor    %eax,%eax
    4e3a:	41 5c                	pop    %r12
    4e3c:	41 5d                	pop    %r13
    4e3e:	41 5e                	pop    %r14
    4e40:	41 5f                	pop    %r15
    4e42:	e9 69 d4 ff ff       	jmpq   22b0 <__fprintf_chk@plt>
    4e47:	66 0f 1f 84 00 00 00 	nopw   0x0(%rax,%rax,1)
    4e4e:	00 00 
    4e50:	ba 05 00 00 00       	mov    $0x5,%edx
    4e55:	31 ff                	xor    %edi,%edi
    4e57:	4c 8b 73 18          	mov    0x18(%rbx),%r14
    4e5b:	4c 8b 6b 10          	mov    0x10(%rbx),%r13
    4e5f:	48 8d 35 f2 1f 00 00 	lea    0x1ff2(%rip),%rsi        # 6e58 <quoting_style_vals@@Base+0x198>
    4e66:	4c 8b 63 08          	mov    0x8(%rbx),%r12
    4e6a:	48 8b 1b             	mov    (%rbx),%rbx
    4e6d:	e8 4e d2 ff ff       	callq  20c0 <dcgettext@plt>
    4e72:	48 83 ec 08          	sub    $0x8,%rsp
    4e76:	41 56                	push   %r14
    4e78:	48 89 c2             	mov    %rax,%rdx
    4e7b:	4d 89 e9             	mov    %r13,%r9
    4e7e:	4d 89 e0             	mov    %r12,%r8
    4e81:	48 89 d9             	mov    %rbx,%rcx
    4e84:	48 89 ef             	mov    %rbp,%rdi
    4e87:	be 01 00 00 00       	mov    $0x1,%esi
    4e8c:	31 c0                	xor    %eax,%eax
    4e8e:	e8 1d d4 ff ff       	callq  22b0 <__fprintf_chk@plt>
    4e93:	58                   	pop    %rax
    4e94:	5a                   	pop    %rdx
    4e95:	48 83 c4 28          	add    $0x28,%rsp
    4e99:	5b                   	pop    %rbx
    4e9a:	5d                   	pop    %rbp
    4e9b:	41 5c                	pop    %r12
    4e9d:	41 5d                	pop    %r13
    4e9f:	41 5e                	pop    %r14
    4ea1:	41 5f                	pop    %r15
    4ea3:	c3                   	retq   
    4ea4:	0f 1f 40 00          	nopl   0x0(%rax)
    4ea8:	4c 8b 7b 20          	mov    0x20(%rbx),%r15
    4eac:	ba 05 00 00 00       	mov    $0x5,%edx
    4eb1:	31 ff                	xor    %edi,%edi
    4eb3:	4c 8b 73 18          	mov    0x18(%rbx),%r14
    4eb7:	48 8d 35 ba 1f 00 00 	lea    0x1fba(%rip),%rsi        # 6e78 <quoting_style_vals@@Base+0x1b8>
    4ebe:	4c 8b 6b 10          	mov    0x10(%rbx),%r13
    4ec2:	4c 8b 63 08          	mov    0x8(%rbx),%r12
    4ec6:	48 8b 1b             	mov    (%rbx),%rbx
    4ec9:	e8 f2 d1 ff ff       	callq  20c0 <dcgettext@plt>
    4ece:	41 57                	push   %r15
    4ed0:	eb a4                	jmp    4e76 <__cxa_finalize@plt+0x2b76>
    4ed2:	66 0f 1f 44 00 00    	nopw   0x0(%rax,%rax,1)
    4ed8:	4c 8b 43 08          	mov    0x8(%rbx),%r8
    4edc:	4c 8b 63 28          	mov    0x28(%rbx),%r12
    4ee0:	ba 05 00 00 00       	mov    $0x5,%edx
    4ee5:	31 ff                	xor    %edi,%edi
    4ee7:	4c 8b 7b 20          	mov    0x20(%rbx),%r15
    4eeb:	4c 8b 73 18          	mov    0x18(%rbx),%r14
    4eef:	48 8d 35 aa 1f 00 00 	lea    0x1faa(%rip),%rsi        # 6ea0 <quoting_style_vals@@Base+0x1e0>
    4ef6:	4c 89 04 24          	mov    %r8,(%rsp)
    4efa:	4c 8b 6b 10          	mov    0x10(%rbx),%r13
    4efe:	48 8b 1b             	mov    (%rbx),%rbx
    4f01:	e8 ba d1 ff ff       	callq  20c0 <dcgettext@plt>
    4f06:	48 83 ec 08          	sub    $0x8,%rsp
    4f0a:	4d 89 e9             	mov    %r13,%r9
    4f0d:	41 54                	push   %r12
    4f0f:	41 57                	push   %r15
    4f11:	41 56                	push   %r14
    4f13:	4c 8b 44 24 20       	mov    0x20(%rsp),%r8
    4f18:	48 89 d9             	mov    %rbx,%rcx
    4f1b:	48 89 c2             	mov    %rax,%rdx
    4f1e:	48 89 ef             	mov    %rbp,%rdi
    4f21:	be 01 00 00 00       	mov    $0x1,%esi
    4f26:	31 c0                	xor    %eax,%eax
    4f28:	e8 83 d3 ff ff       	callq  22b0 <__fprintf_chk@plt>
    4f2d:	48 83 c4 20          	add    $0x20,%rsp
    4f31:	48 83 c4 28          	add    $0x28,%rsp
    4f35:	5b                   	pop    %rbx
    4f36:	5d                   	pop    %rbp
    4f37:	41 5c                	pop    %r12
    4f39:	41 5d                	pop    %r13
    4f3b:	41 5e                	pop    %r14
    4f3d:	41 5f                	pop    %r15
    4f3f:	c3                   	retq   
    4f40:	4c 8b 4b 10          	mov    0x10(%rbx),%r9
    4f44:	4c 8b 6b 30          	mov    0x30(%rbx),%r13
    4f48:	ba 05 00 00 00       	mov    $0x5,%edx
    4f4d:	31 ff                	xor    %edi,%edi
    4f4f:	4c 8b 63 28          	mov    0x28(%rbx),%r12
    4f53:	4c 8b 7b 20          	mov    0x20(%rbx),%r15
    4f57:	48 8d 35 6a 1f 00 00 	lea    0x1f6a(%rip),%rsi        # 6ec8 <quoting_style_vals@@Base+0x208>
    4f5e:	4c 8b 73 18          	mov    0x18(%rbx),%r14
    4f62:	4c 8b 43 08          	mov    0x8(%rbx),%r8
    4f66:	4c 89 4c 24 08       	mov    %r9,0x8(%rsp)
    4f6b:	48 8b 1b             	mov    (%rbx),%rbx
    4f6e:	4c 89 04 24          	mov    %r8,(%rsp)
    4f72:	e8 49 d1 ff ff       	callq  20c0 <dcgettext@plt>
    4f77:	41 55                	push   %r13
    4f79:	41 54                	push   %r12
    4f7b:	41 57                	push   %r15
    4f7d:	41 56                	push   %r14
    4f7f:	4c 8b 4c 24 28       	mov    0x28(%rsp),%r9
    4f84:	eb 8d                	jmp    4f13 <__cxa_finalize@plt+0x2c13>
    4f86:	66 2e 0f 1f 84 00 00 	nopw   %cs:0x0(%rax,%rax,1)
    4f8d:	00 00 00 
    4f90:	4c 8b 53 40          	mov    0x40(%rbx),%r10
    4f94:	4c 8b 4b 38          	mov    0x38(%rbx),%r9
    4f98:	ba 05 00 00 00       	mov    $0x5,%edx
    4f9d:	48 8d 35 bc 1f 00 00 	lea    0x1fbc(%rip),%rsi        # 6f60 <quoting_style_vals@@Base+0x2a0>
    4fa4:	48 8b 43 10          	mov    0x10(%rbx),%rax
    4fa8:	4c 8b 43 08          	mov    0x8(%rbx),%r8
    4fac:	4c 8b 6b 30          	mov    0x30(%rbx),%r13
    4fb0:	4c 8b 63 28          	mov    0x28(%rbx),%r12
    4fb4:	4c 89 54 24 18       	mov    %r10,0x18(%rsp)
    4fb9:	4c 8b 7b 20          	mov    0x20(%rbx),%r15
    4fbd:	4c 8b 73 18          	mov    0x18(%rbx),%r14
    4fc1:	4c 89 4c 24 10       	mov    %r9,0x10(%rsp)
    4fc6:	48 89 04 24          	mov    %rax,(%rsp)
    4fca:	48 8b 1b             	mov    (%rbx),%rbx
    4fcd:	4c 89 44 24 08       	mov    %r8,0x8(%rsp)
    4fd2:	e9 93 fd ff ff       	jmpq   4d6a <__cxa_finalize@plt+0x2a6a>
    4fd7:	66 0f 1f 84 00 00 00 	nopw   0x0(%rax,%rax,1)
    4fde:	00 00 
    4fe0:	45 31 c9             	xor    %r9d,%r9d
    4fe3:	49 83 38 00          	cmpq   $0x0,(%r8)
    4fe7:	74 12                	je     4ffb <__cxa_finalize@plt+0x2cfb>
    4fe9:	0f 1f 80 00 00 00 00 	nopl   0x0(%rax)
    4ff0:	49 83 c1 01          	add    $0x1,%r9
    4ff4:	4b 83 3c c8 00       	cmpq   $0x0,(%r8,%r9,8)
    4ff9:	75 f5                	jne    4ff0 <__cxa_finalize@plt+0x2cf0>
    4ffb:	e9 d0 fb ff ff       	jmpq   4bd0 <__cxa_finalize@plt+0x28d0>
    5000:	48 83 ec 68          	sub    $0x68,%rsp
    5004:	45 31 c9             	xor    %r9d,%r9d
    5007:	64 48 8b 04 25 28 00 	mov    %fs:0x28,%rax
    500e:	00 00 
    5010:	48 89 44 24 58       	mov    %rax,0x58(%rsp)
    5015:	31 c0                	xor    %eax,%eax
    5017:	49 89 e3             	mov    %rsp,%r11
    501a:	eb 27                	jmp    5043 <__cxa_finalize@plt+0x2d43>
    501c:	0f 1f 40 00          	nopl   0x0(%rax)
    5020:	41 89 c2             	mov    %eax,%r10d
    5023:	83 c0 08             	add    $0x8,%eax
    5026:	4d 03 50 10          	add    0x10(%r8),%r10
    502a:	41 89 00             	mov    %eax,(%r8)
    502d:	49 8b 02             	mov    (%r10),%rax
    5030:	4b 89 04 cb          	mov    %rax,(%r11,%r9,8)
    5034:	48 85 c0             	test   %rax,%rax
    5037:	74 2f                	je     5068 <__cxa_finalize@plt+0x2d68>
    5039:	49 83 c1 01          	add    $0x1,%r9
    503d:	49 83 f9 0a          	cmp    $0xa,%r9
    5041:	74 25                	je     5068 <__cxa_finalize@plt+0x2d68>
    5043:	41 8b 00             	mov    (%r8),%eax
    5046:	83 f8 2f             	cmp    $0x2f,%eax
    5049:	76 d5                	jbe    5020 <__cxa_finalize@plt+0x2d20>
    504b:	4d 8b 50 08          	mov    0x8(%r8),%r10
    504f:	49 8d 42 08          	lea    0x8(%r10),%rax
    5053:	49 89 40 08          	mov    %rax,0x8(%r8)
    5057:	49 8b 02             	mov    (%r10),%rax
    505a:	4b 89 04 cb          	mov    %rax,(%r11,%r9,8)
    505e:	48 85 c0             	test   %rax,%rax
    5061:	75 d6                	jne    5039 <__cxa_finalize@plt+0x2d39>
    5063:	0f 1f 44 00 00       	nopl   0x0(%rax,%rax,1)
    5068:	4d 89 d8             	mov    %r11,%r8
    506b:	e8 60 fb ff ff       	callq  4bd0 <__cxa_finalize@plt+0x28d0>
    5070:	48 8b 44 24 58       	mov    0x58(%rsp),%rax
    5075:	64 48 33 04 25 28 00 	xor    %fs:0x28,%rax
    507c:	00 00 
    507e:	75 05                	jne    5085 <__cxa_finalize@plt+0x2d85>
    5080:	48 83 c4 68          	add    $0x68,%rsp
    5084:	c3                   	retq   
    5085:	e8 66 d0 ff ff       	callq  20f0 <__stack_chk_fail@plt>
    508a:	66 0f 1f 44 00 00    	nopw   0x0(%rax,%rax,1)
    5090:	55                   	push   %rbp
    5091:	41 ba 20 00 00 00    	mov    $0x20,%r10d
    5097:	53                   	push   %rbx
    5098:	31 db                	xor    %ebx,%ebx
    509a:	48 81 ec b8 00 00 00 	sub    $0xb8,%rsp
    50a1:	4c 89 84 24 a0 00 00 	mov    %r8,0xa0(%rsp)
    50a8:	00 
    50a9:	4c 8d 9c 24 d0 00 00 	lea    0xd0(%rsp),%r11
    50b0:	00 
    50b1:	4c 8d 44 24 20       	lea    0x20(%rsp),%r8
    50b6:	4c 89 8c 24 a8 00 00 	mov    %r9,0xa8(%rsp)
    50bd:	00 
    50be:	45 31 c9             	xor    %r9d,%r9d
    50c1:	64 48 8b 04 25 28 00 	mov    %fs:0x28,%rax
    50c8:	00 00 
    50ca:	48 89 44 24 78       	mov    %rax,0x78(%rsp)
    50cf:	31 c0                	xor    %eax,%eax
    50d1:	48 8d 84 24 d0 00 00 	lea    0xd0(%rsp),%rax
    50d8:	00 
    50d9:	c7 44 24 08 20 00 00 	movl   $0x20,0x8(%rsp)
    50e0:	00 
    50e1:	48 89 44 24 10       	mov    %rax,0x10(%rsp)
    50e6:	48 8d 84 24 80 00 00 	lea    0x80(%rsp),%rax
    50ed:	00 
    50ee:	48 89 44 24 18       	mov    %rax,0x18(%rsp)
    50f3:	48 89 c5             	mov    %rax,%rbp
    50f6:	eb 2d                	jmp    5125 <__cxa_finalize@plt+0x2e25>
    50f8:	0f 1f 84 00 00 00 00 	nopl   0x0(%rax,%rax,1)
    50ff:	00 
    5100:	44 89 d0             	mov    %r10d,%eax
    5103:	bb 01 00 00 00       	mov    $0x1,%ebx
    5108:	41 83 c2 08          	add    $0x8,%r10d
    510c:	48 01 e8             	add    %rbp,%rax
    510f:	48 8b 00             	mov    (%rax),%rax
    5112:	4b 89 04 c8          	mov    %rax,(%r8,%r9,8)
    5116:	48 85 c0             	test   %rax,%rax
    5119:	74 25                	je     5140 <__cxa_finalize@plt+0x2e40>
    511b:	49 83 c1 01          	add    $0x1,%r9
    511f:	49 83 f9 0a          	cmp    $0xa,%r9
    5123:	74 1b                	je     5140 <__cxa_finalize@plt+0x2e40>
    5125:	41 83 fa 2f          	cmp    $0x2f,%r10d
    5129:	76 d5                	jbe    5100 <__cxa_finalize@plt+0x2e00>
    512b:	4c 89 d8             	mov    %r11,%rax
    512e:	49 83 c3 08          	add    $0x8,%r11
    5132:	48 8b 00             	mov    (%rax),%rax
    5135:	4b 89 04 c8          	mov    %rax,(%r8,%r9,8)
    5139:	48 85 c0             	test   %rax,%rax
    513c:	75 dd                	jne    511b <__cxa_finalize@plt+0x2e1b>
    513e:	66 90                	xchg   %ax,%ax
    5140:	84 db                	test   %bl,%bl
    5142:	74 05                	je     5149 <__cxa_finalize@plt+0x2e49>
    5144:	44 89 54 24 08       	mov    %r10d,0x8(%rsp)
    5149:	e8 82 fa ff ff       	callq  4bd0 <__cxa_finalize@plt+0x28d0>
    514e:	48 8b 44 24 78       	mov    0x78(%rsp),%rax
    5153:	64 48 33 04 25 28 00 	xor    %fs:0x28,%rax
    515a:	00 00 
    515c:	75 0a                	jne    5168 <__cxa_finalize@plt+0x2e68>
    515e:	48 81 c4 b8 00 00 00 	add    $0xb8,%rsp
    5165:	5b                   	pop    %rbx
    5166:	5d                   	pop    %rbp
    5167:	c3                   	retq   
    5168:	e8 83 cf ff ff       	callq  20f0 <__stack_chk_fail@plt>
    516d:	0f 1f 00             	nopl   (%rax)
    5170:	53                   	push   %rbx
    5171:	ba 05 00 00 00       	mov    $0x5,%edx
    5176:	48 8d 35 c5 1b 00 00 	lea    0x1bc5(%rip),%rsi        # 6d42 <quoting_style_vals@@Base+0x82>
    517d:	31 ff                	xor    %edi,%edi
    517f:	e8 3c cf ff ff       	callq  20c0 <dcgettext@plt>
    5184:	48 8d 15 cc 1b 00 00 	lea    0x1bcc(%rip),%rdx        # 6d57 <quoting_style_vals@@Base+0x97>
    518b:	bf 01 00 00 00       	mov    $0x1,%edi
    5190:	48 89 c6             	mov    %rax,%rsi
    5193:	31 c0                	xor    %eax,%eax
    5195:	e8 a6 d0 ff ff       	callq  2240 <__printf_chk@plt>
    519a:	ba 05 00 00 00       	mov    $0x5,%edx
    519f:	48 8d 35 c7 1b 00 00 	lea    0x1bc7(%rip),%rsi        # 6d6d <quoting_style_vals@@Base+0xad>
    51a6:	31 ff                	xor    %edi,%edi
    51a8:	e8 13 cf ff ff       	callq  20c0 <dcgettext@plt>
    51ad:	48 8d 0d 5c 13 00 00 	lea    0x135c(%rip),%rcx        # 6510 <_IO_stdin_used@@Base+0x510>
    51b4:	bf 01 00 00 00       	mov    $0x1,%edi
    51b9:	48 8d 15 fa 0e 00 00 	lea    0xefa(%rip),%rdx        # 60ba <_IO_stdin_used@@Base+0xba>
    51c0:	48 89 c6             	mov    %rax,%rsi
    51c3:	31 c0                	xor    %eax,%eax
    51c5:	e8 76 d0 ff ff       	callq  2240 <__printf_chk@plt>
    51ca:	48 8b 1d d7 4e 00 00 	mov    0x4ed7(%rip),%rbx        # a0a8 <stdout@@GLIBC_2.2.5>
    51d1:	31 ff                	xor    %edi,%edi
    51d3:	48 8d 35 c6 1d 00 00 	lea    0x1dc6(%rip),%rsi        # 6fa0 <quoting_style_vals@@Base+0x2e0>
    51da:	ba 05 00 00 00       	mov    $0x5,%edx
    51df:	e8 dc ce ff ff       	callq  20c0 <dcgettext@plt>
    51e4:	48 89 de             	mov    %rbx,%rsi
    51e7:	5b                   	pop    %rbx
    51e8:	48 89 c7             	mov    %rax,%rdi
    51eb:	e9 90 cf ff ff       	jmpq   2180 <fputs_unlocked@plt>
    51f0:	53                   	push   %rbx
    51f1:	48 89 fb             	mov    %rdi,%rbx
    51f4:	e8 e7 cf ff ff       	callq  21e0 <malloc@plt>
    51f9:	48 85 c0             	test   %rax,%rax
    51fc:	75 05                	jne    5203 <__cxa_finalize@plt+0x2f03>
    51fe:	48 85 db             	test   %rbx,%rbx
    5201:	75 02                	jne    5205 <__cxa_finalize@plt+0x2f05>
    5203:	5b                   	pop    %rbx
    5204:	c3                   	retq   
    5205:	e8 36 02 00 00       	callq  5440 <__cxa_finalize@plt+0x3140>
    520a:	66 0f 1f 44 00 00    	nopw   0x0(%rax,%rax,1)
    5210:	48 89 f8             	mov    %rdi,%rax
    5213:	48 f7 e6             	mul    %rsi
    5216:	48 89 c7             	mov    %rax,%rdi
    5219:	0f 90 c0             	seto   %al
    521c:	48 85 ff             	test   %rdi,%rdi
    521f:	78 0a                	js     522b <__cxa_finalize@plt+0x2f2b>
    5221:	0f b6 c0             	movzbl %al,%eax
    5224:	48 85 c0             	test   %rax,%rax
    5227:	75 02                	jne    522b <__cxa_finalize@plt+0x2f2b>
    5229:	eb c5                	jmp    51f0 <__cxa_finalize@plt+0x2ef0>
    522b:	50                   	push   %rax
    522c:	e8 0f 02 00 00       	callq  5440 <__cxa_finalize@plt+0x3140>
    5231:	66 66 2e 0f 1f 84 00 	data16 nopw %cs:0x0(%rax,%rax,1)
    5238:	00 00 00 00 
    523c:	0f 1f 40 00          	nopl   0x0(%rax)
    5240:	eb ae                	jmp    51f0 <__cxa_finalize@plt+0x2ef0>
    5242:	66 66 2e 0f 1f 84 00 	data16 nopw %cs:0x0(%rax,%rax,1)
    5249:	00 00 00 00 
    524d:	0f 1f 00             	nopl   (%rax)
    5250:	53                   	push   %rbx
    5251:	48 89 f3             	mov    %rsi,%rbx
    5254:	48 85 f6             	test   %rsi,%rsi
    5257:	75 05                	jne    525e <__cxa_finalize@plt+0x2f5e>
    5259:	48 85 ff             	test   %rdi,%rdi
    525c:	75 1a                	jne    5278 <__cxa_finalize@plt+0x2f78>
    525e:	48 89 de             	mov    %rbx,%rsi
    5261:	e8 ba cf ff ff       	callq  2220 <realloc@plt>
    5266:	48 85 c0             	test   %rax,%rax
    5269:	75 05                	jne    5270 <__cxa_finalize@plt+0x2f70>
    526b:	48 85 db             	test   %rbx,%rbx
    526e:	75 11                	jne    5281 <__cxa_finalize@plt+0x2f81>
    5270:	5b                   	pop    %rbx
    5271:	c3                   	retq   
    5272:	66 0f 1f 44 00 00    	nopw   0x0(%rax,%rax,1)
    5278:	e8 b3 cd ff ff       	callq  2030 <free@plt>
    527d:	31 c0                	xor    %eax,%eax
    527f:	5b                   	pop    %rbx
    5280:	c3                   	retq   
    5281:	e8 ba 01 00 00       	callq  5440 <__cxa_finalize@plt+0x3140>
    5286:	66 2e 0f 1f 84 00 00 	nopw   %cs:0x0(%rax,%rax,1)
    528d:	00 00 00 
    5290:	48 89 f0             	mov    %rsi,%rax
    5293:	48 f7 e2             	mul    %rdx
    5296:	48 89 c6             	mov    %rax,%rsi
    5299:	0f 90 c0             	seto   %al
    529c:	48 85 f6             	test   %rsi,%rsi
    529f:	78 0a                	js     52ab <__cxa_finalize@plt+0x2fab>
    52a1:	0f b6 c0             	movzbl %al,%eax
    52a4:	48 85 c0             	test   %rax,%rax
    52a7:	75 02                	jne    52ab <__cxa_finalize@plt+0x2fab>
    52a9:	eb a5                	jmp    5250 <__cxa_finalize@plt+0x2f50>
    52ab:	50                   	push   %rax
    52ac:	e8 8f 01 00 00       	callq  5440 <__cxa_finalize@plt+0x3140>
    52b1:	66 66 2e 0f 1f 84 00 	data16 nopw %cs:0x0(%rax,%rax,1)
    52b8:	00 00 00 00 
    52bc:	0f 1f 40 00          	nopl   0x0(%rax)
    52c0:	49 89 d1             	mov    %rdx,%r9
    52c3:	48 8b 0e             	mov    (%rsi),%rcx
    52c6:	48 85 ff             	test   %rdi,%rdi
    52c9:	74 35                	je     5300 <__cxa_finalize@plt+0x3000>
    52cb:	48 b8 54 55 55 55 55 	movabs $0x5555555555555554,%rax
    52d2:	55 55 55 
    52d5:	31 d2                	xor    %edx,%edx
    52d7:	49 f7 f1             	div    %r9
    52da:	48 39 c8             	cmp    %rcx,%rax
    52dd:	76 3c                	jbe    531b <__cxa_finalize@plt+0x301b>
    52df:	48 89 c8             	mov    %rcx,%rax
    52e2:	48 d1 e8             	shr    %rax
    52e5:	48 8d 4c 08 01       	lea    0x1(%rax,%rcx,1),%rcx
    52ea:	48 89 0e             	mov    %rcx,(%rsi)
    52ed:	49 0f af c9          	imul   %r9,%rcx
    52f1:	48 89 ce             	mov    %rcx,%rsi
    52f4:	e9 57 ff ff ff       	jmpq   5250 <__cxa_finalize@plt+0x2f50>
    52f9:	0f 1f 80 00 00 00 00 	nopl   0x0(%rax)
    5300:	48 85 c9             	test   %rcx,%rcx
    5303:	74 23                	je     5328 <__cxa_finalize@plt+0x3028>
    5305:	48 89 c8             	mov    %rcx,%rax
    5308:	49 f7 e1             	mul    %r9
    530b:	0f 90 c2             	seto   %dl
    530e:	0f b6 d2             	movzbl %dl,%edx
    5311:	48 85 c0             	test   %rax,%rax
    5314:	78 05                	js     531b <__cxa_finalize@plt+0x301b>
    5316:	48 85 d2             	test   %rdx,%rdx
    5319:	74 cf                	je     52ea <__cxa_finalize@plt+0x2fea>
    531b:	50                   	push   %rax
    531c:	e8 1f 01 00 00       	callq  5440 <__cxa_finalize@plt+0x3140>
    5321:	0f 1f 80 00 00 00 00 	nopl   0x0(%rax)
    5328:	31 d2                	xor    %edx,%edx
    532a:	b8 80 00 00 00       	mov    $0x80,%eax
    532f:	45 31 c0             	xor    %r8d,%r8d
    5332:	49 f7 f1             	div    %r9
    5335:	49 81 f9 80 00 00 00 	cmp    $0x80,%r9
    533c:	41 0f 97 c0          	seta   %r8b
    5340:	49 8d 0c 00          	lea    (%r8,%rax,1),%rcx
    5344:	eb bf                	jmp    5305 <__cxa_finalize@plt+0x3005>
    5346:	66 2e 0f 1f 84 00 00 	nopw   %cs:0x0(%rax,%rax,1)
    534d:	00 00 00 
    5350:	48 8b 06             	mov    (%rsi),%rax
    5353:	48 85 ff             	test   %rdi,%rdi
    5356:	74 28                	je     5380 <__cxa_finalize@plt+0x3080>
    5358:	48 ba 53 55 55 55 55 	movabs $0x5555555555555553,%rdx
    535f:	55 55 55 
    5362:	48 39 d0             	cmp    %rdx,%rax
    5365:	77 33                	ja     539a <__cxa_finalize@plt+0x309a>
    5367:	48 89 c2             	mov    %rax,%rdx
    536a:	48 d1 ea             	shr    %rdx
    536d:	48 8d 44 02 01       	lea    0x1(%rdx,%rax,1),%rax
    5372:	48 89 06             	mov    %rax,(%rsi)
    5375:	48 89 c6             	mov    %rax,%rsi
    5378:	e9 d3 fe ff ff       	jmpq   5250 <__cxa_finalize@plt+0x2f50>
    537d:	0f 1f 00             	nopl   (%rax)
    5380:	48 85 c0             	test   %rax,%rax
    5383:	75 13                	jne    5398 <__cxa_finalize@plt+0x3098>
    5385:	b8 80 00 00 00       	mov    $0x80,%eax
    538a:	48 89 06             	mov    %rax,(%rsi)
    538d:	48 89 c6             	mov    %rax,%rsi
    5390:	e9 bb fe ff ff       	jmpq   5250 <__cxa_finalize@plt+0x2f50>
    5395:	0f 1f 00             	nopl   (%rax)
    5398:	79 d8                	jns    5372 <__cxa_finalize@plt+0x3072>
    539a:	50                   	push   %rax
    539b:	e8 a0 00 00 00       	callq  5440 <__cxa_finalize@plt+0x3140>
    53a0:	53                   	push   %rbx
    53a1:	48 89 fb             	mov    %rdi,%rbx
    53a4:	e8 47 fe ff ff       	callq  51f0 <__cxa_finalize@plt+0x2ef0>
    53a9:	48 89 da             	mov    %rbx,%rdx
    53ac:	31 f6                	xor    %esi,%esi
    53ae:	5b                   	pop    %rbx
    53af:	48 89 c7             	mov    %rax,%rdi
    53b2:	e9 a9 cd ff ff       	jmpq   2160 <memset@plt>
    53b7:	66 0f 1f 84 00 00 00 	nopw   0x0(%rax,%rax,1)
    53be:	00 00 
    53c0:	48 89 f8             	mov    %rdi,%rax
    53c3:	48 83 ec 08          	sub    $0x8,%rsp
    53c7:	48 f7 e6             	mul    %rsi
    53ca:	0f 90 c2             	seto   %dl
    53cd:	48 85 c0             	test   %rax,%rax
    53d0:	78 17                	js     53e9 <__cxa_finalize@plt+0x30e9>
    53d2:	0f b6 d2             	movzbl %dl,%edx
    53d5:	48 85 d2             	test   %rdx,%rdx
    53d8:	75 0f                	jne    53e9 <__cxa_finalize@plt+0x30e9>
    53da:	e8 b1 cd ff ff       	callq  2190 <calloc@plt>
    53df:	48 85 c0             	test   %rax,%rax
    53e2:	74 05                	je     53e9 <__cxa_finalize@plt+0x30e9>
    53e4:	48 83 c4 08          	add    $0x8,%rsp
    53e8:	c3                   	retq   
    53e9:	e8 52 00 00 00       	callq  5440 <__cxa_finalize@plt+0x3140>
    53ee:	66 90                	xchg   %ax,%ax
    53f0:	55                   	push   %rbp
    53f1:	48 89 fd             	mov    %rdi,%rbp
    53f4:	48 89 f7             	mov    %rsi,%rdi
    53f7:	53                   	push   %rbx
    53f8:	48 89 f3             	mov    %rsi,%rbx
    53fb:	48 83 ec 08          	sub    $0x8,%rsp
    53ff:	e8 ec fd ff ff       	callq  51f0 <__cxa_finalize@plt+0x2ef0>
    5404:	48 83 c4 08          	add    $0x8,%rsp
    5408:	48 89 da             	mov    %rbx,%rdx
    540b:	48 89 ee             	mov    %rbp,%rsi
    540e:	5b                   	pop    %rbx
    540f:	48 89 c7             	mov    %rax,%rdi
    5412:	5d                   	pop    %rbp
    5413:	e9 98 cd ff ff       	jmpq   21b0 <memcpy@plt>
    5418:	0f 1f 84 00 00 00 00 	nopl   0x0(%rax,%rax,1)
    541f:	00 
    5420:	53                   	push   %rbx
    5421:	48 89 fb             	mov    %rdi,%rbx
    5424:	e8 b7 cc ff ff       	callq  20e0 <strlen@plt>
    5429:	48 89 df             	mov    %rbx,%rdi
    542c:	5b                   	pop    %rbx
    542d:	48 8d 70 01          	lea    0x1(%rax),%rsi
    5431:	eb bd                	jmp    53f0 <__cxa_finalize@plt+0x30f0>
    5433:	66 2e 0f 1f 84 00 00 	nopw   %cs:0x0(%rax,%rax,1)
    543a:	00 00 00 
    543d:	0f 1f 00             	nopl   (%rax)
    5440:	48 83 ec 08          	sub    $0x8,%rsp
    5444:	ba 05 00 00 00       	mov    $0x5,%edx
    5449:	48 8d 35 ff 1b 00 00 	lea    0x1bff(%rip),%rsi        # 704f <version_etc_copyright@@Base+0x2f>
    5450:	31 ff                	xor    %edi,%edi
    5452:	e8 69 cc ff ff       	callq  20c0 <dcgettext@plt>
    5457:	8b 3d c3 4b 00 00    	mov    0x4bc3(%rip),%edi        # a020 <exit_failure@@Base>
    545d:	48 8d 15 84 11 00 00 	lea    0x1184(%rip),%rdx        # 65e8 <_IO_stdin_used@@Base+0x5e8>
    5464:	31 f6                	xor    %esi,%esi
    5466:	48 89 c1             	mov    %rax,%rcx
    5469:	31 c0                	xor    %eax,%eax
    546b:	e8 e0 cd ff ff       	callq  2250 <error@plt>
    5470:	e8 cb cb ff ff       	callq  2040 <abort@plt>
    5475:	66 2e 0f 1f 84 00 00 	nopw   %cs:0x0(%rax,%rax,1)
    547c:	00 00 00 
    547f:	90                   	nop
    5480:	41 54                	push   %r12
    5482:	55                   	push   %rbp
    5483:	53                   	push   %rbx
    5484:	48 89 fb             	mov    %rdi,%rbx
    5487:	e8 34 cd ff ff       	callq  21c0 <fileno@plt>
    548c:	48 89 df             	mov    %rbx,%rdi
    548f:	85 c0                	test   %eax,%eax
    5491:	78 54                	js     54e7 <__cxa_finalize@plt+0x31e7>
    5493:	e8 78 cd ff ff       	callq  2210 <__freading@plt>
    5498:	85 c0                	test   %eax,%eax
    549a:	75 2c                	jne    54c8 <__cxa_finalize@plt+0x31c8>
    549c:	48 89 df             	mov    %rbx,%rdi
    549f:	e8 5c 00 00 00       	callq  5500 <__cxa_finalize@plt+0x3200>
    54a4:	85 c0                	test   %eax,%eax
    54a6:	74 3c                	je     54e4 <__cxa_finalize@plt+0x31e4>
    54a8:	e8 a3 cb ff ff       	callq  2050 <__errno_location@plt>
    54ad:	48 89 df             	mov    %rbx,%rdi
    54b0:	44 8b 20             	mov    (%rax),%r12d
    54b3:	48 89 c5             	mov    %rax,%rbp
    54b6:	e8 e5 cb ff ff       	callq  20a0 <fclose@plt>
    54bb:	45 85 e4             	test   %r12d,%r12d
    54be:	75 30                	jne    54f0 <__cxa_finalize@plt+0x31f0>
    54c0:	5b                   	pop    %rbx
    54c1:	5d                   	pop    %rbp
    54c2:	41 5c                	pop    %r12
    54c4:	c3                   	retq   
    54c5:	0f 1f 00             	nopl   (%rax)
    54c8:	48 89 df             	mov    %rbx,%rdi
    54cb:	e8 f0 cc ff ff       	callq  21c0 <fileno@plt>
    54d0:	31 f6                	xor    %esi,%esi
    54d2:	ba 01 00 00 00       	mov    $0x1,%edx
    54d7:	89 c7                	mov    %eax,%edi
    54d9:	e8 72 cc ff ff       	callq  2150 <lseek@plt>
    54de:	48 83 f8 ff          	cmp    $0xffffffffffffffff,%rax
    54e2:	75 b8                	jne    549c <__cxa_finalize@plt+0x319c>
    54e4:	48 89 df             	mov    %rbx,%rdi
    54e7:	5b                   	pop    %rbx
    54e8:	5d                   	pop    %rbp
    54e9:	41 5c                	pop    %r12
    54eb:	e9 b0 cb ff ff       	jmpq   20a0 <fclose@plt>
    54f0:	44 89 65 00          	mov    %r12d,0x0(%rbp)
    54f4:	b8 ff ff ff ff       	mov    $0xffffffff,%eax
    54f9:	eb c5                	jmp    54c0 <__cxa_finalize@plt+0x31c0>
    54fb:	0f 1f 44 00 00       	nopl   0x0(%rax,%rax,1)
    5500:	53                   	push   %rbx
    5501:	48 89 fb             	mov    %rdi,%rbx
    5504:	48 85 ff             	test   %rdi,%rdi
    5507:	74 11                	je     551a <__cxa_finalize@plt+0x321a>
    5509:	e8 02 cd ff ff       	callq  2210 <__freading@plt>
    550e:	85 c0                	test   %eax,%eax
    5510:	74 08                	je     551a <__cxa_finalize@plt+0x321a>
    5512:	f7 03 00 01 00 00    	testl  $0x100,(%rbx)
    5518:	75 0e                	jne    5528 <__cxa_finalize@plt+0x3228>
    551a:	48 89 df             	mov    %rbx,%rdi
    551d:	5b                   	pop    %rbx
    551e:	e9 cd cc ff ff       	jmpq   21f0 <fflush@plt>
    5523:	0f 1f 44 00 00       	nopl   0x0(%rax,%rax,1)
    5528:	48 89 df             	mov    %rbx,%rdi
    552b:	ba 01 00 00 00       	mov    $0x1,%edx
    5530:	31 f6                	xor    %esi,%esi
    5532:	e8 09 00 00 00       	callq  5540 <__cxa_finalize@plt+0x3240>
    5537:	48 89 df             	mov    %rbx,%rdi
    553a:	5b                   	pop    %rbx
    553b:	e9 b0 cc ff ff       	jmpq   21f0 <fflush@plt>
    5540:	48 8b 47 08          	mov    0x8(%rdi),%rax
    5544:	48 39 47 10          	cmp    %rax,0x10(%rdi)
    5548:	74 06                	je     5550 <__cxa_finalize@plt+0x3250>
    554a:	e9 11 cd ff ff       	jmpq   2260 <fseeko@plt>
    554f:	90                   	nop
    5550:	48 8b 47 20          	mov    0x20(%rdi),%rax
    5554:	48 39 47 28          	cmp    %rax,0x28(%rdi)
    5558:	75 f0                	jne    554a <__cxa_finalize@plt+0x324a>
    555a:	48 83 7f 48 00       	cmpq   $0x0,0x48(%rdi)
    555f:	75 e9                	jne    554a <__cxa_finalize@plt+0x324a>
    5561:	41 54                	push   %r12
    5563:	41 89 d4             	mov    %edx,%r12d
    5566:	55                   	push   %rbp
    5567:	48 89 f5             	mov    %rsi,%rbp
    556a:	53                   	push   %rbx
    556b:	48 89 fb             	mov    %rdi,%rbx
    556e:	e8 4d cc ff ff       	callq  21c0 <fileno@plt>
    5573:	44 89 e2             	mov    %r12d,%edx
    5576:	48 89 ee             	mov    %rbp,%rsi
    5579:	89 c7                	mov    %eax,%edi
    557b:	e8 d0 cb ff ff       	callq  2150 <lseek@plt>
    5580:	48 83 f8 ff          	cmp    $0xffffffffffffffff,%rax
    5584:	74 0c                	je     5592 <__cxa_finalize@plt+0x3292>
    5586:	83 23 ef             	andl   $0xffffffef,(%rbx)
    5589:	48 89 83 90 00 00 00 	mov    %rax,0x90(%rbx)
    5590:	31 c0                	xor    %eax,%eax
    5592:	5b                   	pop    %rbx
    5593:	5d                   	pop    %rbp
    5594:	41 5c                	pop    %r12
    5596:	c3                   	retq   
    5597:	66 0f 1f 84 00 00 00 	nopw   0x0(%rax,%rax,1)
    559e:	00 00 
    55a0:	41 55                	push   %r13
    55a2:	49 89 f5             	mov    %rsi,%r13
    55a5:	41 54                	push   %r12
    55a7:	49 89 d4             	mov    %rdx,%r12
    55aa:	55                   	push   %rbp
    55ab:	53                   	push   %rbx
    55ac:	48 89 fb             	mov    %rdi,%rbx
    55af:	48 83 ec 18          	sub    $0x18,%rsp
    55b3:	64 48 8b 04 25 28 00 	mov    %fs:0x28,%rax
    55ba:	00 00 
    55bc:	48 89 44 24 08       	mov    %rax,0x8(%rsp)
    55c1:	31 c0                	xor    %eax,%eax
    55c3:	48 85 ff             	test   %rdi,%rdi
    55c6:	48 8d 44 24 04       	lea    0x4(%rsp),%rax
    55cb:	48 0f 44 d8          	cmove  %rax,%rbx
    55cf:	48 89 df             	mov    %rbx,%rdi
    55d2:	e8 39 cb ff ff       	callq  2110 <mbrtowc@plt>
    55d7:	48 89 c5             	mov    %rax,%rbp
    55da:	48 83 f8 fd          	cmp    $0xfffffffffffffffd,%rax
    55de:	76 05                	jbe    55e5 <__cxa_finalize@plt+0x32e5>
    55e0:	4d 85 e4             	test   %r12,%r12
    55e3:	75 23                	jne    5608 <__cxa_finalize@plt+0x3308>
    55e5:	48 8b 54 24 08       	mov    0x8(%rsp),%rdx
    55ea:	64 48 33 14 25 28 00 	xor    %fs:0x28,%rdx
    55f1:	00 00 
    55f3:	48 89 e8             	mov    %rbp,%rax
    55f6:	75 29                	jne    5621 <__cxa_finalize@plt+0x3321>
    55f8:	48 83 c4 18          	add    $0x18,%rsp
    55fc:	5b                   	pop    %rbx
    55fd:	5d                   	pop    %rbp
    55fe:	41 5c                	pop    %r12
    5600:	41 5d                	pop    %r13
    5602:	c3                   	retq   
    5603:	0f 1f 44 00 00       	nopl   0x0(%rax,%rax,1)
    5608:	31 ff                	xor    %edi,%edi
    560a:	e8 81 00 00 00       	callq  5690 <__cxa_finalize@plt+0x3390>
    560f:	84 c0                	test   %al,%al
    5611:	75 d2                	jne    55e5 <__cxa_finalize@plt+0x32e5>
    5613:	41 0f b6 45 00       	movzbl 0x0(%r13),%eax
    5618:	bd 01 00 00 00       	mov    $0x1,%ebp
    561d:	89 03                	mov    %eax,(%rbx)
    561f:	eb c4                	jmp    55e5 <__cxa_finalize@plt+0x32e5>
    5621:	e8 ca ca ff ff       	callq  20f0 <__stack_chk_fail@plt>
    5626:	66 2e 0f 1f 84 00 00 	nopw   %cs:0x0(%rax,%rax,1)
    562d:	00 00 00 
    5630:	41 54                	push   %r12
    5632:	55                   	push   %rbp
    5633:	48 89 fd             	mov    %rdi,%rbp
    5636:	53                   	push   %rbx
    5637:	e8 44 ca ff ff       	callq  2080 <__fpending@plt>
    563c:	8b 5d 00             	mov    0x0(%rbp),%ebx
    563f:	48 89 ef             	mov    %rbp,%rdi
    5642:	49 89 c4             	mov    %rax,%r12
    5645:	83 e3 20             	and    $0x20,%ebx
    5648:	e8 33 fe ff ff       	callq  5480 <__cxa_finalize@plt+0x3180>
    564d:	85 db                	test   %ebx,%ebx
    564f:	75 1f                	jne    5670 <__cxa_finalize@plt+0x3370>
    5651:	85 c0                	test   %eax,%eax
    5653:	74 15                	je     566a <__cxa_finalize@plt+0x336a>
    5655:	4d 85 e4             	test   %r12,%r12
    5658:	75 2c                	jne    5686 <__cxa_finalize@plt+0x3386>
    565a:	e8 f1 c9 ff ff       	callq  2050 <__errno_location@plt>
    565f:	83 38 09             	cmpl   $0x9,(%rax)
    5662:	0f 95 c0             	setne  %al
    5665:	0f b6 c0             	movzbl %al,%eax
    5668:	f7 d8                	neg    %eax
    566a:	5b                   	pop    %rbx
    566b:	5d                   	pop    %rbp
    566c:	41 5c                	pop    %r12
    566e:	c3                   	retq   
    566f:	90                   	nop
    5670:	85 c0                	test   %eax,%eax
    5672:	75 12                	jne    5686 <__cxa_finalize@plt+0x3386>
    5674:	e8 d7 c9 ff ff       	callq  2050 <__errno_location@plt>
    5679:	c7 00 00 00 00 00    	movl   $0x0,(%rax)
    567f:	b8 ff ff ff ff       	mov    $0xffffffff,%eax
    5684:	eb e4                	jmp    566a <__cxa_finalize@plt+0x336a>
    5686:	b8 ff ff ff ff       	mov    $0xffffffff,%eax
    568b:	eb dd                	jmp    566a <__cxa_finalize@plt+0x336a>
    568d:	0f 1f 00             	nopl   (%rax)
    5690:	48 83 ec 08          	sub    $0x8,%rsp
    5694:	31 f6                	xor    %esi,%esi
    5696:	e8 95 cb ff ff       	callq  2230 <setlocale@plt>
    569b:	48 89 c2             	mov    %rax,%rdx
    569e:	b8 01 00 00 00       	mov    $0x1,%eax
    56a3:	48 85 d2             	test   %rdx,%rdx
    56a6:	74 1d                	je     56c5 <__cxa_finalize@plt+0x33c5>
    56a8:	b9 02 00 00 00       	mov    $0x2,%ecx
    56ad:	48 8d 3d ac 19 00 00 	lea    0x19ac(%rip),%rdi        # 7060 <version_etc_copyright@@Base+0x40>
    56b4:	48 89 d6             	mov    %rdx,%rsi
    56b7:	f3 a6                	repz cmpsb %es:(%rdi),%ds:(%rsi)
    56b9:	0f 97 c1             	seta   %cl
    56bc:	80 d9 00             	sbb    $0x0,%cl
    56bf:	31 c0                	xor    %eax,%eax
    56c1:	84 c9                	test   %cl,%cl
    56c3:	75 0b                	jne    56d0 <__cxa_finalize@plt+0x33d0>
    56c5:	48 83 c4 08          	add    $0x8,%rsp
    56c9:	c3                   	retq   
    56ca:	66 0f 1f 44 00 00    	nopw   0x0(%rax,%rax,1)
    56d0:	b9 06 00 00 00       	mov    $0x6,%ecx
    56d5:	48 8d 3d 86 19 00 00 	lea    0x1986(%rip),%rdi        # 7062 <version_etc_copyright@@Base+0x42>
    56dc:	48 89 d6             	mov    %rdx,%rsi
    56df:	f3 a6                	repz cmpsb %es:(%rdi),%ds:(%rsi)
    56e1:	0f 97 c0             	seta   %al
    56e4:	1c 00                	sbb    $0x0,%al
    56e6:	84 c0                	test   %al,%al
    56e8:	0f 95 c0             	setne  %al
    56eb:	48 83 c4 08          	add    $0x8,%rsp
    56ef:	c3                   	retq   
    56f0:	48 83 ec 08          	sub    $0x8,%rsp
    56f4:	bf 0e 00 00 00       	mov    $0xe,%edi
    56f9:	e8 02 cb ff ff       	callq  2200 <nl_langinfo@plt>
    56fe:	48 85 c0             	test   %rax,%rax
    5701:	74 1d                	je     5720 <__cxa_finalize@plt+0x3420>
    5703:	80 38 00             	cmpb   $0x0,(%rax)
    5706:	48 8d 15 5b 19 00 00 	lea    0x195b(%rip),%rdx        # 7068 <version_etc_copyright@@Base+0x48>
    570d:	48 0f 44 c2          	cmove  %rdx,%rax
    5711:	48 83 c4 08          	add    $0x8,%rsp
    5715:	c3                   	retq   
    5716:	66 2e 0f 1f 84 00 00 	nopw   %cs:0x0(%rax,%rax,1)
    571d:	00 00 00 
    5720:	48 8d 05 41 19 00 00 	lea    0x1941(%rip),%rax        # 7068 <version_etc_copyright@@Base+0x48>
    5727:	48 83 c4 08          	add    $0x8,%rsp
    572b:	c3                   	retq   
    572c:	0f 1f 40 00          	nopl   0x0(%rax)
    5730:	41 57                	push   %r15
    5732:	49 89 d7             	mov    %rdx,%r15
    5735:	41 56                	push   %r14
    5737:	49 89 f6             	mov    %rsi,%r14
    573a:	41 55                	push   %r13
    573c:	41 89 fd             	mov    %edi,%r13d
    573f:	41 54                	push   %r12
    5741:	4c 8d 25 88 42 00 00 	lea    0x4288(%rip),%r12        # 99d0 <version_etc_copyright@@Base+0x29b0>
    5748:	55                   	push   %rbp
    5749:	48 8d 2d 88 42 00 00 	lea    0x4288(%rip),%rbp        # 99d8 <version_etc_copyright@@Base+0x29b8>
    5750:	53                   	push   %rbx
    5751:	4c 29 e5             	sub    %r12,%rbp
    5754:	48 83 ec 08          	sub    $0x8,%rsp
    5758:	e8 a3 c8 ff ff       	callq  2000 <free@plt-0x30>
    575d:	48 c1 fd 03          	sar    $0x3,%rbp
    5761:	74 1b                	je     577e <__cxa_finalize@plt+0x347e>
    5763:	31 db                	xor    %ebx,%ebx
    5765:	0f 1f 00             	nopl   (%rax)
    5768:	4c 89 fa             	mov    %r15,%rdx
    576b:	4c 89 f6             	mov    %r14,%rsi
    576e:	44 89 ef             	mov    %r13d,%edi
    5771:	41 ff 14 dc          	callq  *(%r12,%rbx,8)
    5775:	48 83 c3 01          	add    $0x1,%rbx
    5779:	48 39 dd             	cmp    %rbx,%rbp
    577c:	75 ea                	jne    5768 <__cxa_finalize@plt+0x3468>
    577e:	48 83 c4 08          	add    $0x8,%rsp
    5782:	5b                   	pop    %rbx
    5783:	5d                   	pop    %rbp
    5784:	41 5c                	pop    %r12
    5786:	41 5d                	pop    %r13
    5788:	41 5e                	pop    %r14
    578a:	41 5f                	pop    %r15
    578c:	c3                   	retq   
    578d:	0f 1f 00             	nopl   (%rax)
    5790:	c3                   	retq   
    5791:	66 2e 0f 1f 84 00 00 	nopw   %cs:0x0(%rax,%rax,1)
    5798:	00 00 00 
    579b:	0f 1f 44 00 00       	nopl   0x0(%rax,%rax,1)
    57a0:	48 8b 15 61 48 00 00 	mov    0x4861(%rip),%rdx        # a008 <quoting_style_args@@Base+0x408>
    57a7:	31 f6                	xor    %esi,%esi
    57a9:	e9 d2 ca ff ff       	jmpq   2280 <__cxa_atexit@plt>

Disassembly of section .fini:

00000000000057b0 <.fini>:
    57b0:	48 83 ec 08          	sub    $0x8,%rsp
    57b4:	48 83 c4 08          	add    $0x8,%rsp
    57b8:	c3                   	retq   
